
pairwise_min.o:	file format mach-o arm64

Disassembly of section __TEXT,__text:

0000000000000000 <ltmp0>:
       0: 14000001     	b	0x4 <ltmp0+0x4>
       4: a9b87bfd     	stp	x29, x30, [sp, #-0x80]!
       8: 910003fd     	mov	x29, sp
       c: a905e7b3     	stp	x19, x25, [x29, #0x58]
      10: a906efba     	stp	x26, x27, [x29, #0x68]
      14: f9003fbc     	str	x28, [x29, #0x78]
      18: 9000001c     	adrp	x28, 0x0 <ltmp0>
      1c: 9100039c     	add	x28, x28, #0x0
      20: 94000000     	bl	0x20 <ltmp0+0x20>
      24: 90000009     	adrp	x9, 0x0 <ltmp0>
      28: 91000129     	add	x9, x9, #0x0
      2c: 91002129     	add	x9, x9, #0x8
      30: aa0903e0     	mov	x0, x9
      34: 94000000     	bl	0x34 <ltmp0+0x34>
      38: d2800109     	mov	x9, #0x8                ; =8
      3c: aa0903e0     	mov	x0, x9
      40: 94000000     	bl	0x40 <ltmp0+0x40>
      44: aa0003e9     	mov	x9, x0
      48: aa0903fb     	mov	x27, x9
      4c: d2800109     	mov	x9, #0x8                ; =8
      50: aa0903e0     	mov	x0, x9
      54: 94000000     	bl	0x54 <ltmp0+0x54>
      58: aa0003e9     	mov	x9, x0
      5c: aa0903fa     	mov	x26, x9
      60: d2800089     	mov	x9, #0x4                ; =4
      64: aa0903e0     	mov	x0, x9
      68: 94000000     	bl	0x68 <ltmp0+0x68>
      6c: aa0003e9     	mov	x9, x0
      70: aa0903f9     	mov	x25, x9
      74: d2800089     	mov	x9, #0x4                ; =4
      78: aa0903e0     	mov	x0, x9
      7c: 94000000     	bl	0x7c <ltmp0+0x7c>
      80: aa0003e9     	mov	x9, x0
      84: aa0903f9     	mov	x25, x9
      88: 9000000a     	adrp	x10, 0x0 <ltmp0>
      8c: 9100014a     	add	x10, x10, #0x0
      90: fd400140     	ldr	d0, [x10]
      94: d280000a     	mov	x10, #0x0               ; =0
      98: d37df14b     	lsl	x11, x10, #3
      9c: 8b0b036c     	add	x12, x27, x11
      a0: fd000180     	str	d0, [x12]
      a4: 9000000b     	adrp	x11, 0x0 <ltmp0>
      a8: 9100016b     	add	x11, x11, #0x0
      ac: fd400160     	ldr	d0, [x11]
      b0: d280002b     	mov	x11, #0x1               ; =1
      b4: d37df16c     	lsl	x12, x11, #3
      b8: 8b0c036d     	add	x13, x27, x12
      bc: fd0001a0     	str	d0, [x13]
      c0: 9000000c     	adrp	x12, 0x0 <ltmp0>
      c4: 9100018c     	add	x12, x12, #0x0
      c8: fd400180     	ldr	d0, [x12]
      cc: d280004c     	mov	x12, #0x2               ; =2
      d0: d37df18d     	lsl	x13, x12, #3
      d4: 8b0d036e     	add	x14, x27, x13
      d8: fd0001c0     	str	d0, [x14]
      dc: 9000000d     	adrp	x13, 0x0 <ltmp0>
      e0: 910001ad     	add	x13, x13, #0x0
      e4: fd4001a0     	ldr	d0, [x13]
      e8: d280006d     	mov	x13, #0x3               ; =3
      ec: d37df1ae     	lsl	x14, x13, #3
      f0: 8b0e036f     	add	x15, x27, x14
      f4: fd0001e0     	str	d0, [x15]
      f8: 9000000e     	adrp	x14, 0x0 <ltmp0>
      fc: 910001ce     	add	x14, x14, #0x0
     100: fd4001c0     	ldr	d0, [x14]
     104: d280008e     	mov	x14, #0x4               ; =4
     108: d37df1cf     	lsl	x15, x14, #3
     10c: 8b0f0369     	add	x9, x27, x15
     110: fd000120     	str	d0, [x9]
     114: 9000000a     	adrp	x10, 0x0 <ltmp0>
     118: 9100014a     	add	x10, x10, #0x0
     11c: fd400140     	ldr	d0, [x10]
     120: d28000aa     	mov	x10, #0x5               ; =5
     124: d37df14b     	lsl	x11, x10, #3
     128: 8b0b036c     	add	x12, x27, x11
     12c: fd000180     	str	d0, [x12]
     130: 9000000b     	adrp	x11, 0x0 <ltmp0>
     134: 9100016b     	add	x11, x11, #0x0
     138: fd400160     	ldr	d0, [x11]
     13c: d28000cb     	mov	x11, #0x6               ; =6
     140: d37df16c     	lsl	x12, x11, #3
     144: 8b0c036d     	add	x13, x27, x12
     148: fd0001a0     	str	d0, [x13]
     14c: 9000000c     	adrp	x12, 0x0 <ltmp0>
     150: 9100018c     	add	x12, x12, #0x0
     154: fd400180     	ldr	d0, [x12]
     158: d28000ec     	mov	x12, #0x7               ; =7
     15c: d37df18d     	lsl	x13, x12, #3
     160: 8b0d036e     	add	x14, x27, x13
     164: fd0001c0     	str	d0, [x14]
     168: 9000000d     	adrp	x13, 0x0 <ltmp0>
     16c: 910001ad     	add	x13, x13, #0x0
     170: fd4001a0     	ldr	d0, [x13]
     174: d280000d     	mov	x13, #0x0               ; =0
     178: d37df1ae     	lsl	x14, x13, #3
     17c: 8b0e034f     	add	x15, x26, x14
     180: fd0001e0     	str	d0, [x15]
     184: 9000000e     	adrp	x14, 0x0 <ltmp0>
     188: 910001ce     	add	x14, x14, #0x0
     18c: fd4001c0     	ldr	d0, [x14]
     190: d280002e     	mov	x14, #0x1               ; =1
     194: d37df1cf     	lsl	x15, x14, #3
     198: 8b0f0349     	add	x9, x26, x15
     19c: fd000120     	str	d0, [x9]
     1a0: 9000000a     	adrp	x10, 0x0 <ltmp0>
     1a4: 9100014a     	add	x10, x10, #0x0
     1a8: fd400140     	ldr	d0, [x10]
     1ac: d280004a     	mov	x10, #0x2               ; =2
     1b0: d37df14b     	lsl	x11, x10, #3
     1b4: 8b0b034c     	add	x12, x26, x11
     1b8: fd000180     	str	d0, [x12]
     1bc: 9000000b     	adrp	x11, 0x0 <ltmp0>
     1c0: 9100016b     	add	x11, x11, #0x0
     1c4: fd400160     	ldr	d0, [x11]
     1c8: d280006b     	mov	x11, #0x3               ; =3
     1cc: d37df16c     	lsl	x12, x11, #3
     1d0: 8b0c034d     	add	x13, x26, x12
     1d4: fd0001a0     	str	d0, [x13]
     1d8: 9000000c     	adrp	x12, 0x0 <ltmp0>
     1dc: 9100018c     	add	x12, x12, #0x0
     1e0: fd400180     	ldr	d0, [x12]
     1e4: d280008c     	mov	x12, #0x4               ; =4
     1e8: d37df18d     	lsl	x13, x12, #3
     1ec: 8b0d034e     	add	x14, x26, x13
     1f0: fd0001c0     	str	d0, [x14]
     1f4: 9000000d     	adrp	x13, 0x0 <ltmp0>
     1f8: 910001ad     	add	x13, x13, #0x0
     1fc: fd4001a0     	ldr	d0, [x13]
     200: d28000ad     	mov	x13, #0x5               ; =5
     204: d37df1ae     	lsl	x14, x13, #3
     208: 8b0e034f     	add	x15, x26, x14
     20c: fd0001e0     	str	d0, [x15]
     210: 9000000e     	adrp	x14, 0x0 <ltmp0>
     214: 910001ce     	add	x14, x14, #0x0
     218: fd4001c0     	ldr	d0, [x14]
     21c: d28000ce     	mov	x14, #0x6               ; =6
     220: d37df1cf     	lsl	x15, x14, #3
     224: 8b0f0349     	add	x9, x26, x15
     228: fd000120     	str	d0, [x9]
     22c: 9000000a     	adrp	x10, 0x0 <ltmp0>
     230: 9100014a     	add	x10, x10, #0x0
     234: fd400140     	ldr	d0, [x10]
     238: d28000ea     	mov	x10, #0x7               ; =7
     23c: d37df14b     	lsl	x11, x10, #3
     240: 8b0b034c     	add	x12, x26, x11
     244: fd000180     	str	d0, [x12]
     248: d280000a     	mov	x10, #0x0               ; =0
     24c: aa0a03fa     	mov	x26, x10
     250: d100236b     	sub	x11, x27, #0x8
     254: f940016a     	ldr	x10, [x11]
     258: d280004b     	mov	x11, #0x2               ; =2
     25c: 9acb0d4a     	sdiv	x10, x10, x11
     260: aa0a03f4     	mov	x20, x10
     264: aa1403e0     	mov	x0, x20
     268: f940426b     	ldr	x11, [x19, #0x80]
     26c: d63f0160     	blr	x11
     270: aa0003fa     	mov	x26, x0
     274: 4c407b60     	ld1.4s	{ v0 }, [x27]
     278: 4c407b41     	ld1.4s	{ v1 }, [x26]
     27c: 6ea1f402     	fminp.4s	v2, v0, v1
     280: 4c007b42     	st1.4s	{ v2 }, [x26]
     284: 94000000     	bl	0x284 <ltmp0+0x284>
     288: 14000001     	b	0x28c <ltmp0+0x28c>
     28c: 14000001     	b	0x290 <ltmp0+0x290>
     290: a945e7b3     	ldp	x19, x25, [x29, #0x58]
     294: a946efba     	ldp	x26, x27, [x29, #0x68]
     298: f9403fbc     	ldr	x28, [x29, #0x78]
     29c: 910003bf     	mov	sp, x29
     2a0: a9407bfd     	ldp	x29, x30, [sp]
     2a4: 910043ff     	add	sp, sp, #0x10
     2a8: d65f03c0     	ret
     2ac: d2934e10     	mov	x16, #0x9a70            ; =39536
     2b0: f2a00c30     	movk	x16, #0x61, lsl #16
     2b4: f2c00030     	movk	x16, #0x1, lsl #32
     2b8: f2e00010     	movk	x16, #0x0, lsl #48
     2bc: d63f0200     	blr	x16
