
test_fpair_add_basic.o:	file format mach-o arm64

Disassembly of section __TEXT,__text:

0000000000000000 <ltmp0>:
       0: 14000001     	b	0x4 <ltmp0+0x4>
       4: a9ba7bfd     	stp	x29, x30, [sp, #-0x60]!
       8: 910003fd     	mov	x29, sp
       c: a902d3b3     	stp	x19, x20, [x29, #0x28]
      10: a903e7b5     	stp	x21, x25, [x29, #0x38]
      14: a904efba     	stp	x26, x27, [x29, #0x48]
      18: f9002fbc     	str	x28, [x29, #0x58]
      1c: 9000001c     	adrp	x28, 0x0 <ltmp0>
      20: 9100039c     	add	x28, x28, #0x0
      24: 90000009     	adrp	x9, 0x0 <ltmp0>
      28: 91000129     	add	x9, x9, #0x0
      2c: 91002129     	add	x9, x9, #0x8
      30: aa0903e0     	mov	x0, x9
      34: 94000000     	bl	0x34 <ltmp0+0x34>
      38: d2800009     	mov	x9, #0x0                ; =0
      3c: 9000000b     	adrp	x11, 0x0 <ltmp0>
      40: 9100016b     	add	x11, x11, #0x0
      44: fd400160     	ldr	d0, [x11]
      48: 1e624001     	fcvt	s1, d0
      4c: 1e26002b     	fmov	w11, s1
      50: b3407d69     	bfxil	x9, x11, #0, #32
      54: 9000000c     	adrp	x12, 0x0 <ltmp0>
      58: 9100018c     	add	x12, x12, #0x0
      5c: fd400180     	ldr	d0, [x12]
      60: 1e624001     	fcvt	s1, d0
      64: 1e26002c     	fmov	w12, s1
      68: b3607d89     	bfi	x9, x12, #32, #32
      6c: aa0903fb     	mov	x27, x9
      70: d2800009     	mov	x9, #0x0                ; =0
      74: 9000000d     	adrp	x13, 0x0 <ltmp0>
      78: 910001ad     	add	x13, x13, #0x0
      7c: fd4001a0     	ldr	d0, [x13]
      80: 1e624001     	fcvt	s1, d0
      84: 1e26002d     	fmov	w13, s1
      88: b3407da9     	bfxil	x9, x13, #0, #32
      8c: 9000000e     	adrp	x14, 0x0 <ltmp0>
      90: 910001ce     	add	x14, x14, #0x0
      94: fd4001c0     	ldr	d0, [x14]
      98: 1e624001     	fcvt	s1, d0
      9c: 1e26002e     	fmov	w14, s1
      a0: b3607dc9     	bfi	x9, x14, #32, #32
      a4: aa0903fa     	mov	x26, x9
      a8: 90000009     	adrp	x9, 0x0 <ltmp0>
      ac: 91000129     	add	x9, x9, #0x0
      b0: 91002129     	add	x9, x9, #0x8
      b4: aa0903e0     	mov	x0, x9
      b8: aa1b03e1     	mov	x1, x27
      bc: 94000000     	bl	0xbc <ltmp0+0xbc>
      c0: 90000009     	adrp	x9, 0x0 <ltmp0>
      c4: 91000129     	add	x9, x9, #0x0
      c8: 91002129     	add	x9, x9, #0x8
      cc: aa0903e0     	mov	x0, x9
      d0: aa1a03e1     	mov	x1, x26
      d4: 94000000     	bl	0xd4 <ltmp0+0xd4>
      d8: 9e670360     	fmov	d0, x27
      dc: 9e670341     	fmov	d1, x26
      e0: 0e21d400     	fadd.2s	v0, v0, v1
      e4: 9e66001b     	fmov	x27, d0
      e8: aa1b03f9     	mov	x25, x27
      ec: 90000009     	adrp	x9, 0x0 <ltmp0>
      f0: 91000129     	add	x9, x9, #0x0
      f4: 91002129     	add	x9, x9, #0x8
      f8: aa0903e0     	mov	x0, x9
      fc: aa1903e1     	mov	x1, x25
     100: 94000000     	bl	0x100 <ltmp0+0x100>
     104: 90000009     	adrp	x9, 0x0 <ltmp0>
     108: 91000129     	add	x9, x9, #0x0
     10c: 91002129     	add	x9, x9, #0x8
     110: aa0903e0     	mov	x0, x9
     114: 94000000     	bl	0x114 <ltmp0+0x114>
     118: 90000009     	adrp	x9, 0x0 <ltmp0>
     11c: 91000129     	add	x9, x9, #0x0
     120: 91002129     	add	x9, x9, #0x8
     124: aa0903e0     	mov	x0, x9
     128: 94000000     	bl	0x128 <ltmp0+0x128>
     12c: 14000001     	b	0x130 <ltmp0+0x130>
     130: 14000001     	b	0x134 <ltmp0+0x134>
     134: a942d3b3     	ldp	x19, x20, [x29, #0x28]
     138: a943e7b5     	ldp	x21, x25, [x29, #0x38]
     13c: a944efba     	ldp	x26, x27, [x29, #0x48]
     140: f9402fbc     	ldr	x28, [x29, #0x58]
     144: 910003bf     	mov	sp, x29
     148: a9407bfd     	ldp	x29, x30, [sp]
     14c: 910043ff     	add	sp, sp, #0x10
     150: d65f03c0     	ret
