
test_pair_simple.o:	file format mach-o arm64

Disassembly of section __TEXT,__text:

0000000000000000 <ltmp0>:
       0: 14000001     	b	0x4 <ltmp0+0x4>
       4: a9b77bfd     	stp	x29, x30, [sp, #-0x90]!
       8: 910003fd     	mov	x29, sp
       c: a90453b3     	stp	x19, x20, [x29, #0x40]
      10: a9055bb5     	stp	x21, x22, [x29, #0x50]
      14: a90663b7     	stp	x23, x24, [x29, #0x60]
      18: a9076bb9     	stp	x25, x26, [x29, #0x70]
      1c: a90873bb     	stp	x27, x28, [x29, #0x80]
      20: 9000001c     	adrp	x28, 0x0 <ltmp0>
      24: 9100039c     	add	x28, x28, #0x0
      28: 90000009     	adrp	x9, 0x0 <ltmp0>
      2c: 91000129     	add	x9, x9, #0x0
      30: 91002129     	add	x9, x9, #0x8
      34: aa0903e0     	mov	x0, x9
      38: 94000000     	bl	0x38 <ltmp0+0x38>
      3c: d2800009     	mov	x9, #0x0                ; =0
      40: d28000aa     	mov	x10, #0x5               ; =5
      44: cb0a03eb     	neg	x11, x10
      48: b3407d69     	bfxil	x9, x11, #0, #32
      4c: d28001ea     	mov	x10, #0xf               ; =15
      50: b3607d49     	bfi	x9, x10, #32, #32
      54: aa0903fa     	mov	x26, x9
      58: 90000009     	adrp	x9, 0x0 <ltmp0>
      5c: 91000129     	add	x9, x9, #0x0
      60: 91002129     	add	x9, x9, #0x8
      64: aa0903e0     	mov	x0, x9
      68: aa1a03e1     	mov	x1, x26
      6c: 94000000     	bl	0x6c <ltmp0+0x6c>
      70: d2800009     	mov	x9, #0x0                ; =0
      74: d280032a     	mov	x10, #0x19              ; =25
      78: b3407d49     	bfxil	x9, x10, #0, #32
      7c: d280014a     	mov	x10, #0xa               ; =10
      80: cb0a03eb     	neg	x11, x10
      84: b3607d69     	bfi	x9, x11, #32, #32
      88: aa0903f9     	mov	x25, x9
      8c: 90000009     	adrp	x9, 0x0 <ltmp0>
      90: 91000129     	add	x9, x9, #0x0
      94: 91002129     	add	x9, x9, #0x8
      98: aa0903e0     	mov	x0, x9
      9c: aa1903e1     	mov	x1, x25
      a0: 94000000     	bl	0xa0 <ltmp0+0xa0>
      a4: d2800009     	mov	x9, #0x0                ; =0
      a8: d28003ca     	mov	x10, #0x1e              ; =30
      ac: cb0a03eb     	neg	x11, x10
      b0: b3407d69     	bfxil	x9, x11, #0, #32
      b4: d280050a     	mov	x10, #0x28              ; =40
      b8: cb0a03eb     	neg	x11, x10
      bc: b3607d69     	bfi	x9, x11, #32, #32
      c0: aa0903f8     	mov	x24, x9
      c4: 90000009     	adrp	x9, 0x0 <ltmp0>
      c8: 91000129     	add	x9, x9, #0x0
      cc: 91002129     	add	x9, x9, #0x8
      d0: aa0903e0     	mov	x0, x9
      d4: aa1803e1     	mov	x1, x24
      d8: 94000000     	bl	0xd8 <ltmp0+0xd8>
      dc: 90000009     	adrp	x9, 0x0 <ltmp0>
      e0: 91000129     	add	x9, x9, #0x0
      e4: 91002129     	add	x9, x9, #0x8
      e8: aa0903e0     	mov	x0, x9
      ec: 94000000     	bl	0xec <ltmp0+0xec>
      f0: 9e670340     	fmov	d0, x26
      f4: 0e043c14     	mov.s	w20, v0[0]
      f8: aa1403fb     	mov	x27, x20
      fc: 9e670340     	fmov	d0, x26
     100: 0e0c3c14     	mov.s	w20, v0[1]
     104: aa1403f6     	mov	x22, x20
     108: 90000009     	adrp	x9, 0x0 <ltmp0>
     10c: 91000129     	add	x9, x9, #0x0
     110: 91002129     	add	x9, x9, #0x8
     114: aa0903e0     	mov	x0, x9
     118: aa1b03e1     	mov	x1, x27
     11c: aa1603e2     	mov	x2, x22
     120: 94000000     	bl	0x120 <ltmp0+0x120>
     124: 90000009     	adrp	x9, 0x0 <ltmp0>
     128: 91000129     	add	x9, x9, #0x0
     12c: f9400129     	ldr	x9, [x9]
     130: aa0903f7     	mov	x23, x9
     134: 90000009     	adrp	x9, 0x0 <ltmp0>
     138: 91000129     	add	x9, x9, #0x0
     13c: 91002129     	add	x9, x9, #0x8
     140: aa0903e0     	mov	x0, x9
     144: aa1703e1     	mov	x1, x23
     148: 94000000     	bl	0x148 <ltmp0+0x148>
     14c: d2800649     	mov	x9, #0x32               ; =50
     150: d280064a     	mov	x10, #0x32              ; =50
     154: 9e6702e0     	fmov	d0, x23
     158: 4e041d40     	mov.s	v0[0], w10
     15c: 9e660017     	fmov	x23, d0
     160: d280096a     	mov	x10, #0x4b              ; =75
     164: d280096b     	mov	x11, #0x4b              ; =75
     168: 9e6702e0     	fmov	d0, x23
     16c: 4e0c1d60     	mov.s	v0[1], w11
     170: 9e660017     	fmov	x23, d0
     174: 9000000b     	adrp	x11, 0x0 <ltmp0>
     178: 9100016b     	add	x11, x11, #0x0
     17c: 9100216b     	add	x11, x11, #0x8
     180: aa0b03e0     	mov	x0, x11
     184: aa1703e1     	mov	x1, x23
     188: 94000000     	bl	0x188 <ltmp0+0x188>
     18c: 90000009     	adrp	x9, 0x0 <ltmp0>
     190: 91000129     	add	x9, x9, #0x0
     194: 91002129     	add	x9, x9, #0x8
     198: aa0903e0     	mov	x0, x9
     19c: 94000000     	bl	0x19c <ltmp0+0x19c>
     1a0: 14000001     	b	0x1a4 <ltmp0+0x1a4>
     1a4: 14000001     	b	0x1a8 <ltmp0+0x1a8>
     1a8: a94453b3     	ldp	x19, x20, [x29, #0x40]
     1ac: a9455bb5     	ldp	x21, x22, [x29, #0x50]
     1b0: a94663b7     	ldp	x23, x24, [x29, #0x60]
     1b4: a9476bb9     	ldp	x25, x26, [x29, #0x70]
     1b8: a94873bb     	ldp	x27, x28, [x29, #0x80]
     1bc: 910003bf     	mov	sp, x29
     1c0: a9407bfd     	ldp	x29, x30, [sp]
     1c4: 910043ff     	add	sp, sp, #0x10
     1c8: d65f03c0     	ret
