
test_pair_addition.o:	file format mach-o arm64

Disassembly of section __TEXT,__text:

0000000000000000 <ltmp0>:
       0: 14000001     	b	0x4 <ltmp0+0x4>
       4: a9b77bfd     	stp	x29, x30, [sp, #-0x90]!
       8: 910003fd     	mov	x29, sp
       c: a90453b3     	stp	x19, x20, [x29, #0x40]
      10: a9055bb5     	stp	x21, x22, [x29, #0x50]
      14: a90663b7     	stp	x23, x24, [x29, #0x60]
      18: a9076bb9     	stp	x25, x26, [x29, #0x70]
      1c: a90873bb     	stp	x27, x28, [x29, #0x80]
      20: 9000001c     	adrp	x28, 0x0 <ltmp0>
      24: 9100039c     	add	x28, x28, #0x0
      28: 90000009     	adrp	x9, 0x0 <ltmp0>
      2c: 91000129     	add	x9, x9, #0x0
      30: 91002129     	add	x9, x9, #0x8
      34: aa0903e0     	mov	x0, x9
      38: 94000000     	bl	0x38 <ltmp0+0x38>
      3c: 90000009     	adrp	x9, 0x0 <ltmp0>
      40: 91000129     	add	x9, x9, #0x0
      44: f9400129     	ldr	x9, [x9]
      48: aa0903f8     	mov	x24, x9
      4c: 90000009     	adrp	x9, 0x0 <ltmp0>
      50: 91000129     	add	x9, x9, #0x0
      54: f9400129     	ldr	x9, [x9]
      58: aa0903f7     	mov	x23, x9
      5c: 90000009     	adrp	x9, 0x0 <ltmp0>
      60: 91000129     	add	x9, x9, #0x0
      64: 91002129     	add	x9, x9, #0x8
      68: aa0903e0     	mov	x0, x9
      6c: 94000000     	bl	0x6c <ltmp0+0x6c>
      70: 90000009     	adrp	x9, 0x0 <ltmp0>
      74: 91000129     	add	x9, x9, #0x0
      78: 91002129     	add	x9, x9, #0x8
      7c: aa0903e0     	mov	x0, x9
      80: 94000000     	bl	0x80 <ltmp0+0x80>
      84: 90000009     	adrp	x9, 0x0 <ltmp0>
      88: 91000129     	add	x9, x9, #0x0
      8c: 91002129     	add	x9, x9, #0x8
      90: aa0903e0     	mov	x0, x9
      94: 9e670300     	fmov	d0, x24
      98: 93407f14     	sxtw	x20, w24
      9c: aa1403e1     	mov	x1, x20
      a0: 9e670300     	fmov	d0, x24
      a4: 9360ff14     	asr	x20, x24, #32
      a8: aa1403e2     	mov	x2, x20
      ac: 94000000     	bl	0xac <ltmp0+0xac>
      b0: 90000009     	adrp	x9, 0x0 <ltmp0>
      b4: 91000129     	add	x9, x9, #0x0
      b8: 91002129     	add	x9, x9, #0x8
      bc: aa0903e0     	mov	x0, x9
      c0: 9e6702e0     	fmov	d0, x23
      c4: 93407ef4     	sxtw	x20, w23
      c8: aa1403e1     	mov	x1, x20
      cc: 9e6702e0     	fmov	d0, x23
      d0: 9360fef4     	asr	x20, x23, #32
      d4: aa1403e2     	mov	x2, x20
      d8: 94000000     	bl	0xd8 <ltmp0+0xd8>
      dc: 9e670300     	fmov	d0, x24
      e0: 9e6702e1     	fmov	d1, x23
      e4: 0ea18400     	add.2s	v0, v0, v1
      e8: 9e660014     	fmov	x20, d0
      ec: aa1403ef     	mov	x15, x20
      f0: 90000009     	adrp	x9, 0x0 <ltmp0>
      f4: 91000129     	add	x9, x9, #0x0
      f8: 91002129     	add	x9, x9, #0x8
      fc: aa0903e0     	mov	x0, x9
     100: 94000000     	bl	0x100 <ltmp0+0x100>
     104: 90000009     	adrp	x9, 0x0 <ltmp0>
     108: 91000129     	add	x9, x9, #0x0
     10c: 91002129     	add	x9, x9, #0x8
     110: aa0903e0     	mov	x0, x9
     114: 9e6701e0     	fmov	d0, x15
     118: 93407df4     	sxtw	x20, w15
     11c: aa1403e1     	mov	x1, x20
     120: 9e6701e0     	fmov	d0, x15
     124: 9360fdf4     	asr	x20, x15, #32
     128: aa1403e2     	mov	x2, x20
     12c: 94000000     	bl	0x12c <ltmp0+0x12c>
     130: 90000009     	adrp	x9, 0x0 <ltmp0>
     134: 91000129     	add	x9, x9, #0x0
     138: 91002129     	add	x9, x9, #0x8
     13c: aa0903e0     	mov	x0, x9
     140: 94000000     	bl	0x140 <ltmp0+0x140>
     144: 90000009     	adrp	x9, 0x0 <ltmp0>
     148: 91000129     	add	x9, x9, #0x0
     14c: 91002129     	add	x9, x9, #0x8
     150: aa0903e0     	mov	x0, x9
     154: 94000000     	bl	0x154 <ltmp0+0x154>
     158: 90000009     	adrp	x9, 0x0 <ltmp0>
     15c: 91000129     	add	x9, x9, #0x0
     160: f9400129     	ldr	x9, [x9]
     164: aa0903fb     	mov	x27, x9
     168: 90000009     	adrp	x9, 0x0 <ltmp0>
     16c: 91000129     	add	x9, x9, #0x0
     170: f9400129     	ldr	x9, [x9]
     174: aa0903fa     	mov	x26, x9
     178: 9e670360     	fmov	d0, x27
     17c: 9e670341     	fmov	d1, x26
     180: 0ea18400     	add.2s	v0, v0, v1
     184: 9e660014     	fmov	x20, d0
     188: aa1403f9     	mov	x25, x20
     18c: 90000009     	adrp	x9, 0x0 <ltmp0>
     190: 91000129     	add	x9, x9, #0x0
     194: 91002129     	add	x9, x9, #0x8
     198: aa0903e0     	mov	x0, x9
     19c: 9e670360     	fmov	d0, x27
     1a0: 93407f74     	sxtw	x20, w27
     1a4: aa1403e1     	mov	x1, x20
     1a8: 9e670360     	fmov	d0, x27
     1ac: 9360ff74     	asr	x20, x27, #32
     1b0: aa1403e2     	mov	x2, x20
     1b4: 94000000     	bl	0x1b4 <ltmp0+0x1b4>
     1b8: 90000009     	adrp	x9, 0x0 <ltmp0>
     1bc: 91000129     	add	x9, x9, #0x0
     1c0: 91002129     	add	x9, x9, #0x8
     1c4: aa0903e0     	mov	x0, x9
     1c8: 9e670340     	fmov	d0, x26
     1cc: 93407f54     	sxtw	x20, w26
     1d0: aa1403e1     	mov	x1, x20
     1d4: 9e670340     	fmov	d0, x26
     1d8: 9360ff54     	asr	x20, x26, #32
     1dc: aa1403e2     	mov	x2, x20
     1e0: 94000000     	bl	0x1e0 <ltmp0+0x1e0>
     1e4: 90000009     	adrp	x9, 0x0 <ltmp0>
     1e8: 91000129     	add	x9, x9, #0x0
     1ec: 91002129     	add	x9, x9, #0x8
     1f0: aa0903e0     	mov	x0, x9
     1f4: aa1903e1     	mov	x1, x25
     1f8: 94000000     	bl	0x1f8 <ltmp0+0x1f8>
     1fc: 90000009     	adrp	x9, 0x0 <ltmp0>
     200: 91000129     	add	x9, x9, #0x0
     204: 91002129     	add	x9, x9, #0x8
     208: aa0903e0     	mov	x0, x9
     20c: 94000000     	bl	0x20c <ltmp0+0x20c>
     210: 90000009     	adrp	x9, 0x0 <ltmp0>
     214: 91000129     	add	x9, x9, #0x0
     218: 91002129     	add	x9, x9, #0x8
     21c: aa0903e0     	mov	x0, x9
     220: 94000000     	bl	0x220 <ltmp0+0x220>
     224: 14000001     	b	0x228 <ltmp0+0x228>
     228: 14000001     	b	0x22c <ltmp0+0x22c>
     22c: a94453b3     	ldp	x19, x20, [x29, #0x40]
     230: a9455bb5     	ldp	x21, x22, [x29, #0x50]
     234: a94663b7     	ldp	x23, x24, [x29, #0x60]
     238: a9476bb9     	ldp	x25, x26, [x29, #0x70]
     23c: a94873bb     	ldp	x27, x28, [x29, #0x80]
     240: 910003bf     	mov	sp, x29
     244: a9407bfd     	ldp	x29, x30, [sp]
     248: 910043ff     	add	sp, sp, #0x10
     24c: d65f03c0     	ret
