
test_pairs_reductions.o:	file format mach-o arm64

Disassembly of section __TEXT,__text:

0000000000000000 <ltmp0>:
       0: 14000001     	b	0x4 <ltmp0+0x4>
       4: a9b77bfd     	stp	x29, x30, [sp, #-0x90]!
       8: 910003fd     	mov	x29, sp
       c: a903d3b3     	stp	x19, x20, [x29, #0x38]
      10: a904dbb5     	stp	x21, x22, [x29, #0x48]
      14: a905e3b7     	stp	x23, x24, [x29, #0x58]
      18: a906ebb9     	stp	x25, x26, [x29, #0x68]
      1c: a907f3bb     	stp	x27, x28, [x29, #0x78]
      20: 9000001c     	adrp	x28, 0x0 <ltmp0>
      24: 9100039c     	add	x28, x28, #0x0
      28: 90000009     	adrp	x9, 0x0 <ltmp0>
      2c: 91000129     	add	x9, x9, #0x0
      30: 91002129     	add	x9, x9, #0x8
      34: aa0903e0     	mov	x0, x9
      38: 94000000     	bl	0x38 <ltmp0+0x38>
      3c: d2800069     	mov	x9, #0x3                ; =3
      40: aa0903f4     	mov	x20, x9
      44: d37ff935     	lsl	x21, x9, #1
      48: aa1503e0     	mov	x0, x21
      4c: 94000000     	bl	0x4c <ltmp0+0x4c>
      50: aa0003f5     	mov	x21, x0
      54: d10022a9     	sub	x9, x21, #0x8
      58: f9000134     	str	x20, [x9]
      5c: aa1503f9     	mov	x25, x21
      60: d2800069     	mov	x9, #0x3                ; =3
      64: aa0903f4     	mov	x20, x9
      68: d37ff935     	lsl	x21, x9, #1
      6c: aa1503e0     	mov	x0, x21
      70: 94000000     	bl	0x70 <ltmp0+0x70>
      74: aa0003f5     	mov	x21, x0
      78: d10022a9     	sub	x9, x21, #0x8
      7c: f9000134     	str	x20, [x9]
      80: aa1503f8     	mov	x24, x21
      84: 90000009     	adrp	x9, 0x0 <ltmp0>
      88: 91000129     	add	x9, x9, #0x0
      8c: f9400129     	ldr	x9, [x9]
      90: d280000a     	mov	x10, #0x0               ; =0
      94: d37df14b     	lsl	x11, x10, #3
      98: 8b0b032c     	add	x12, x25, x11
      9c: f9000189     	str	x9, [x12]
      a0: 90000009     	adrp	x9, 0x0 <ltmp0>
      a4: 91000129     	add	x9, x9, #0x0
      a8: f9400129     	ldr	x9, [x9]
      ac: d280002a     	mov	x10, #0x1               ; =1
      b0: d37df14b     	lsl	x11, x10, #3
      b4: 8b0b032c     	add	x12, x25, x11
      b8: f9000189     	str	x9, [x12]
      bc: 90000009     	adrp	x9, 0x0 <ltmp0>
      c0: 91000129     	add	x9, x9, #0x0
      c4: f9400129     	ldr	x9, [x9]
      c8: d280004a     	mov	x10, #0x2               ; =2
      cc: d37df14b     	lsl	x11, x10, #3
      d0: 8b0b032c     	add	x12, x25, x11
      d4: f9000189     	str	x9, [x12]
      d8: 90000009     	adrp	x9, 0x0 <ltmp0>
      dc: 91000129     	add	x9, x9, #0x0
      e0: f9400129     	ldr	x9, [x9]
      e4: d280006a     	mov	x10, #0x3               ; =3
      e8: d37df14b     	lsl	x11, x10, #3
      ec: 8b0b032c     	add	x12, x25, x11
      f0: f9000189     	str	x9, [x12]
      f4: 90000009     	adrp	x9, 0x0 <ltmp0>
      f8: 91000129     	add	x9, x9, #0x0
      fc: f9400129     	ldr	x9, [x9]
     100: d280000a     	mov	x10, #0x0               ; =0
     104: d37df14b     	lsl	x11, x10, #3
     108: 8b0b030c     	add	x12, x24, x11
     10c: f9000189     	str	x9, [x12]
     110: 90000009     	adrp	x9, 0x0 <ltmp0>
     114: 91000129     	add	x9, x9, #0x0
     118: f9400129     	ldr	x9, [x9]
     11c: d280002a     	mov	x10, #0x1               ; =1
     120: d37df14b     	lsl	x11, x10, #3
     124: 8b0b030c     	add	x12, x24, x11
     128: f9000189     	str	x9, [x12]
     12c: 90000009     	adrp	x9, 0x0 <ltmp0>
     130: 91000129     	add	x9, x9, #0x0
     134: f9400129     	ldr	x9, [x9]
     138: d280004a     	mov	x10, #0x2               ; =2
     13c: d37df14b     	lsl	x11, x10, #3
     140: 8b0b030c     	add	x12, x24, x11
     144: f9000189     	str	x9, [x12]
     148: 90000009     	adrp	x9, 0x0 <ltmp0>
     14c: 91000129     	add	x9, x9, #0x0
     150: f9400129     	ldr	x9, [x9]
     154: d280006a     	mov	x10, #0x3               ; =3
     158: d37df14b     	lsl	x11, x10, #3
     15c: 8b0b030c     	add	x12, x24, x11
     160: f9000189     	str	x9, [x12]
     164: 90000009     	adrp	x9, 0x0 <ltmp0>
     168: 91000129     	add	x9, x9, #0x0
     16c: 91002129     	add	x9, x9, #0x8
     170: aa0903e0     	mov	x0, x9
     174: 94000000     	bl	0x174 <ltmp0+0x174>
     178: 90000009     	adrp	x9, 0x0 <ltmp0>
     17c: 91000129     	add	x9, x9, #0x0
     180: 91002129     	add	x9, x9, #0x8
     184: aa0903e0     	mov	x0, x9
     188: 94000000     	bl	0x188 <ltmp0+0x188>
     18c: 90000009     	adrp	x9, 0x0 <ltmp0>
     190: 91000129     	add	x9, x9, #0x0
     194: 91002129     	add	x9, x9, #0x8
     198: aa0903e0     	mov	x0, x9
     19c: 94000000     	bl	0x19c <ltmp0+0x19c>
     1a0: aa1903f4     	mov	x20, x25
     1a4: aa1803f5     	mov	x21, x24
     1a8: d100232a     	sub	x10, x25, #0x8
     1ac: f9400149     	ldr	x9, [x10]
     1b0: d100232b     	sub	x11, x25, #0x8
     1b4: f940016a     	ldr	x10, [x11]
     1b8: d100230c     	sub	x12, x24, #0x8
     1bc: f940018b     	ldr	x11, [x12]
     1c0: d280002c     	mov	x12, #0x1               ; =1
     1c4: d37ff94e     	lsl	x14, x10, #1
     1c8: aa0003ed     	mov	x13, x0
     1cc: aa0e03e0     	mov	x0, x14
     1d0: 94000000     	bl	0x1d0 <ltmp0+0x1d0>
     1d4: aa0003ee     	mov	x14, x0
     1d8: aa0d03e0     	mov	x0, x13
     1dc: aa1903eb     	mov	x11, x25
     1e0: aa1803ed     	mov	x13, x24
     1e4: aa0e03ef     	mov	x15, x14
     1e8: f100019f     	cmp	x12, #0x0
     1ec: 54000140     	b.eq	0x214 <ltmp0+0x214>
     1f0: 3dc00160     	ldr	q0, [x11]
     1f4: 3dc001a1     	ldr	q1, [x13]
     1f8: 4ea16c02     	smin.4s	v2, v0, v1
     1fc: 3d8001e2     	str	q2, [x15]
     200: 9100416b     	add	x11, x11, #0x10
     204: 910041ad     	add	x13, x13, #0x10
     208: 910041ef     	add	x15, x15, #0x10
     20c: d100058c     	sub	x12, x12, #0x1
     210: 17fffff6     	b	0x1e8 <ltmp0+0x1e8>
     214: aa0e03fa     	mov	x26, x14
     218: 90000009     	adrp	x9, 0x0 <ltmp0>
     21c: 91000129     	add	x9, x9, #0x0
     220: 91002129     	add	x9, x9, #0x8
     224: aa0903e0     	mov	x0, x9
     228: d2800009     	mov	x9, #0x0                ; =0
     22c: d100234c     	sub	x12, x26, #0x8
     230: f940018b     	ldr	x11, [x12]
     234: eb0b013f     	cmp	x9, x11
     238: 54001822     	b.hs	0x53c <ltmp0+0x53c>
     23c: aa0903eb     	mov	x11, x9
     240: d37df16b     	lsl	x11, x11, #3
     244: 8b0b034c     	add	x12, x26, x11
     248: f9400189     	ldr	x9, [x12]
     24c: aa0903e1     	mov	x1, x9
     250: 94000000     	bl	0x250 <ltmp0+0x250>
     254: 90000009     	adrp	x9, 0x0 <ltmp0>
     258: 91000129     	add	x9, x9, #0x0
     25c: 91002129     	add	x9, x9, #0x8
     260: aa0903e0     	mov	x0, x9
     264: d2800029     	mov	x9, #0x1                ; =1
     268: d100234b     	sub	x11, x26, #0x8
     26c: f940016a     	ldr	x10, [x11]
     270: eb0a013f     	cmp	x9, x10
     274: 54001642     	b.hs	0x53c <ltmp0+0x53c>
     278: aa0903ea     	mov	x10, x9
     27c: d37df14a     	lsl	x10, x10, #3
     280: 8b0a034b     	add	x11, x26, x10
     284: f9400169     	ldr	x9, [x11]
     288: aa0903e1     	mov	x1, x9
     28c: 94000000     	bl	0x28c <ltmp0+0x28c>
     290: 90000009     	adrp	x9, 0x0 <ltmp0>
     294: 91000129     	add	x9, x9, #0x0
     298: 91002129     	add	x9, x9, #0x8
     29c: aa0903e0     	mov	x0, x9
     2a0: d2800049     	mov	x9, #0x2                ; =2
     2a4: d100234b     	sub	x11, x26, #0x8
     2a8: f940016a     	ldr	x10, [x11]
     2ac: eb0a013f     	cmp	x9, x10
     2b0: 54001462     	b.hs	0x53c <ltmp0+0x53c>
     2b4: aa0903ea     	mov	x10, x9
     2b8: d37df14a     	lsl	x10, x10, #3
     2bc: 8b0a034b     	add	x11, x26, x10
     2c0: f9400169     	ldr	x9, [x11]
     2c4: aa0903e1     	mov	x1, x9
     2c8: 94000000     	bl	0x2c8 <ltmp0+0x2c8>
     2cc: 90000009     	adrp	x9, 0x0 <ltmp0>
     2d0: 91000129     	add	x9, x9, #0x0
     2d4: 91002129     	add	x9, x9, #0x8
     2d8: aa0903e0     	mov	x0, x9
     2dc: d2800069     	mov	x9, #0x3                ; =3
     2e0: d100234b     	sub	x11, x26, #0x8
     2e4: f940016a     	ldr	x10, [x11]
     2e8: eb0a013f     	cmp	x9, x10
     2ec: 54001282     	b.hs	0x53c <ltmp0+0x53c>
     2f0: aa0903ea     	mov	x10, x9
     2f4: d37df14a     	lsl	x10, x10, #3
     2f8: 8b0a034b     	add	x11, x26, x10
     2fc: f9400169     	ldr	x9, [x11]
     300: aa0903e1     	mov	x1, x9
     304: 94000000     	bl	0x304 <ltmp0+0x304>
     308: 90000009     	adrp	x9, 0x0 <ltmp0>
     30c: 91000129     	add	x9, x9, #0x0
     310: 91002129     	add	x9, x9, #0x8
     314: aa0903e0     	mov	x0, x9
     318: 94000000     	bl	0x318 <ltmp0+0x318>
     31c: aa1903f6     	mov	x22, x25
     320: d100232a     	sub	x10, x25, #0x8
     324: f9400149     	ldr	x9, [x10]
     328: d100232b     	sub	x11, x25, #0x8
     32c: f940016a     	ldr	x10, [x11]
     330: d100230c     	sub	x12, x24, #0x8
     334: f940018b     	ldr	x11, [x12]
     338: d280002c     	mov	x12, #0x1               ; =1
     33c: d37ff94e     	lsl	x14, x10, #1
     340: aa0003ed     	mov	x13, x0
     344: aa0e03e0     	mov	x0, x14
     348: 94000000     	bl	0x348 <ltmp0+0x348>
     34c: aa0003ee     	mov	x14, x0
     350: aa0d03e0     	mov	x0, x13
     354: aa1903eb     	mov	x11, x25
     358: aa1803ed     	mov	x13, x24
     35c: aa0e03ef     	mov	x15, x14
     360: f100019f     	cmp	x12, #0x0
     364: 54000140     	b.eq	0x38c <ltmp0+0x38c>
     368: 3dc00160     	ldr	q0, [x11]
     36c: 3dc001a1     	ldr	q1, [x13]
     370: 4ea16402     	smax.4s	v2, v0, v1
     374: 3d8001e2     	str	q2, [x15]
     378: 9100416b     	add	x11, x11, #0x10
     37c: 910041ad     	add	x13, x13, #0x10
     380: 910041ef     	add	x15, x15, #0x10
     384: d100058c     	sub	x12, x12, #0x1
     388: 17fffff6     	b	0x360 <ltmp0+0x360>
     38c: aa0e03fb     	mov	x27, x14
     390: 90000009     	adrp	x9, 0x0 <ltmp0>
     394: 91000129     	add	x9, x9, #0x0
     398: 91002129     	add	x9, x9, #0x8
     39c: aa0903e0     	mov	x0, x9
     3a0: d2800009     	mov	x9, #0x0                ; =0
     3a4: d100236c     	sub	x12, x27, #0x8
     3a8: f940018b     	ldr	x11, [x12]
     3ac: eb0b013f     	cmp	x9, x11
     3b0: 54000c62     	b.hs	0x53c <ltmp0+0x53c>
     3b4: aa0903eb     	mov	x11, x9
     3b8: d37df16b     	lsl	x11, x11, #3
     3bc: 8b0b036c     	add	x12, x27, x11
     3c0: f9400189     	ldr	x9, [x12]
     3c4: aa0903e1     	mov	x1, x9
     3c8: 94000000     	bl	0x3c8 <ltmp0+0x3c8>
     3cc: 90000009     	adrp	x9, 0x0 <ltmp0>
     3d0: 91000129     	add	x9, x9, #0x0
     3d4: 91002129     	add	x9, x9, #0x8
     3d8: aa0903e0     	mov	x0, x9
     3dc: d2800029     	mov	x9, #0x1                ; =1
     3e0: d100236b     	sub	x11, x27, #0x8
     3e4: f940016a     	ldr	x10, [x11]
     3e8: eb0a013f     	cmp	x9, x10
     3ec: 54000a82     	b.hs	0x53c <ltmp0+0x53c>
     3f0: aa0903ea     	mov	x10, x9
     3f4: d37df14a     	lsl	x10, x10, #3
     3f8: 8b0a036b     	add	x11, x27, x10
     3fc: f9400169     	ldr	x9, [x11]
     400: aa0903e1     	mov	x1, x9
     404: 94000000     	bl	0x404 <ltmp0+0x404>
     408: 90000009     	adrp	x9, 0x0 <ltmp0>
     40c: 91000129     	add	x9, x9, #0x0
     410: 91002129     	add	x9, x9, #0x8
     414: aa0903e0     	mov	x0, x9
     418: d2800049     	mov	x9, #0x2                ; =2
     41c: d100236b     	sub	x11, x27, #0x8
     420: f940016a     	ldr	x10, [x11]
     424: eb0a013f     	cmp	x9, x10
     428: 540008a2     	b.hs	0x53c <ltmp0+0x53c>
     42c: aa0903ea     	mov	x10, x9
     430: d37df14a     	lsl	x10, x10, #3
     434: 8b0a036b     	add	x11, x27, x10
     438: f9400169     	ldr	x9, [x11]
     43c: aa0903e1     	mov	x1, x9
     440: 94000000     	bl	0x440 <ltmp0+0x440>
     444: 90000009     	adrp	x9, 0x0 <ltmp0>
     448: 91000129     	add	x9, x9, #0x0
     44c: 91002129     	add	x9, x9, #0x8
     450: aa0903e0     	mov	x0, x9
     454: d2800069     	mov	x9, #0x3                ; =3
     458: d100236b     	sub	x11, x27, #0x8
     45c: f940016a     	ldr	x10, [x11]
     460: eb0a013f     	cmp	x9, x10
     464: 540006c2     	b.hs	0x53c <ltmp0+0x53c>
     468: aa0903ea     	mov	x10, x9
     46c: d37df14a     	lsl	x10, x10, #3
     470: 8b0a036b     	add	x11, x27, x10
     474: f9400169     	ldr	x9, [x11]
     478: aa0903e1     	mov	x1, x9
     47c: 94000000     	bl	0x47c <ltmp0+0x47c>
     480: 90000009     	adrp	x9, 0x0 <ltmp0>
     484: 91000129     	add	x9, x9, #0x0
     488: 91002129     	add	x9, x9, #0x8
     48c: aa0903e0     	mov	x0, x9
     490: 94000000     	bl	0x490 <ltmp0+0x490>
     494: aa1803fa     	mov	x26, x24
     498: d100232a     	sub	x10, x25, #0x8
     49c: f9400149     	ldr	x9, [x10]
     4a0: d100232b     	sub	x11, x25, #0x8
     4a4: f940016a     	ldr	x10, [x11]
     4a8: d100230c     	sub	x12, x24, #0x8
     4ac: f940018b     	ldr	x11, [x12]
     4b0: d280002c     	mov	x12, #0x1               ; =1
     4b4: d37ff94e     	lsl	x14, x10, #1
     4b8: aa0003ed     	mov	x13, x0
     4bc: aa0e03e0     	mov	x0, x14
     4c0: 94000000     	bl	0x4c0 <ltmp0+0x4c0>
     4c4: aa0003ee     	mov	x14, x0
     4c8: aa0d03e0     	mov	x0, x13
     4cc: aa1903eb     	mov	x11, x25
     4d0: aa1803ed     	mov	x13, x24
     4d4: aa0e03ef     	mov	x15, x14
     4d8: f100019f     	cmp	x12, #0x0
     4dc: 54000140     	b.eq	0x504 <ltmp0+0x504>
     4e0: 3dc00160     	ldr	q0, [x11]
     4e4: 3dc001a1     	ldr	q1, [x13]
     4e8: 4ea18402     	add.4s	v2, v0, v1
     4ec: 3d8001e2     	str	q2, [x15]
     4f0: 9100416b     	add	x11, x11, #0x10
     4f4: 910041ad     	add	x13, x13, #0x10
     4f8: 910041ef     	add	x15, x15, #0x10
     4fc: d100058c     	sub	x12, x12, #0x1
     500: 17fffff6     	b	0x4d8 <ltmp0+0x4d8>
     504: aa0e03f7     	mov	x23, x14
     508: 90000009     	adrp	x9, 0x0 <ltmp0>
     50c: 91000129     	add	x9, x9, #0x0
     510: 91002129     	add	x9, x9, #0x8
     514: aa0903e0     	mov	x0, x9
     518: aa1703e1     	mov	x1, x23
     51c: 94000000     	bl	0x51c <ltmp0+0x51c>
     520: 90000009     	adrp	x9, 0x0 <ltmp0>
     524: 91000129     	add	x9, x9, #0x0
     528: 91002129     	add	x9, x9, #0x8
     52c: aa0903e0     	mov	x0, x9
     530: 94000000     	bl	0x530 <ltmp0+0x530>
     534: 14000001     	b	0x538 <ltmp0+0x538>
     538: 14000006     	b	0x550 <ltmp0+0x550>
     53c: d2800000     	mov	x0, #0x0                ; =0
     540: d2800001     	mov	x1, #0x0                ; =0
     544: d2800002     	mov	x2, #0x0                ; =0
     548: 94000000     	bl	0x548 <ltmp0+0x548>
     54c: d4200000     	brk	#0
     550: a943d3b3     	ldp	x19, x20, [x29, #0x38]
     554: a944dbb5     	ldp	x21, x22, [x29, #0x48]
     558: a945e3b7     	ldp	x23, x24, [x29, #0x58]
     55c: a946ebb9     	ldp	x25, x26, [x29, #0x68]
     560: a947f3bb     	ldp	x27, x28, [x29, #0x78]
     564: 910003bf     	mov	sp, x29
     568: a9407bfd     	ldp	x29, x30, [sp]
     56c: 910043ff     	add	sp, sp, #0x10
     570: d65f03c0     	ret
     574: d2942d10     	mov	x16, #0xa168            ; =41320
     578: f2a00dd0     	movk	x16, #0x6e, lsl #16
     57c: f2c00030     	movk	x16, #0x1, lsl #32
     580: f2e00010     	movk	x16, #0x0, lsl #48
     584: d63f0200     	blr	x16
