
test_pair_values.o:	file format mach-o arm64

Disassembly of section __TEXT,__text:

0000000000000000 <ltmp0>:
       0: 14000001     	b	0x4 <ltmp0+0x4>
       4: a9ba7bfd     	stp	x29, x30, [sp, #-0x60]!
       8: 910003fd     	mov	x29, sp
       c: a90353b3     	stp	x19, x20, [x29, #0x30]
      10: a9046fba     	stp	x26, x27, [x29, #0x40]
      14: f9002bbc     	str	x28, [x29, #0x50]
      18: 9000001c     	adrp	x28, 0x0 <ltmp0>
      1c: 9100039c     	add	x28, x28, #0x0
      20: 90000009     	adrp	x9, 0x0 <ltmp0>
      24: 91000129     	add	x9, x9, #0x0
      28: 91002129     	add	x9, x9, #0x8
      2c: aa0903e0     	mov	x0, x9
      30: 94000000     	bl	0x30 <ltmp0+0x30>
      34: 90000009     	adrp	x9, 0x0 <ltmp0>
      38: 91000129     	add	x9, x9, #0x0
      3c: f9400129     	ldr	x9, [x9]
      40: aa0903ef     	mov	x15, x9
      44: 90000009     	adrp	x9, 0x0 <ltmp0>
      48: 91000129     	add	x9, x9, #0x0
      4c: 91002129     	add	x9, x9, #0x8
      50: aa0903e0     	mov	x0, x9
      54: 94000000     	bl	0x54 <ltmp0+0x54>
      58: 9e6701e0     	fmov	d0, x15
      5c: 0e043c14     	mov.s	w20, v0[0]
      60: aa1403fb     	mov	x27, x20
      64: 9e6701e0     	fmov	d0, x15
      68: 0e0c3c14     	mov.s	w20, v0[1]
      6c: aa1403fa     	mov	x26, x20
      70: 90000009     	adrp	x9, 0x0 <ltmp0>
      74: 91000129     	add	x9, x9, #0x0
      78: 91002129     	add	x9, x9, #0x8
      7c: aa0903e0     	mov	x0, x9
      80: aa1b03e1     	mov	x1, x27
      84: aa1a03e2     	mov	x2, x26
      88: 94000000     	bl	0x88 <ltmp0+0x88>
      8c: 90000009     	adrp	x9, 0x0 <ltmp0>
      90: 91000129     	add	x9, x9, #0x0
      94: f9400129     	ldr	x9, [x9]
      98: aa0903fa     	mov	x26, x9
      9c: 90000009     	adrp	x9, 0x0 <ltmp0>
      a0: 91000129     	add	x9, x9, #0x0
      a4: 91002129     	add	x9, x9, #0x8
      a8: aa0903e0     	mov	x0, x9
      ac: 94000000     	bl	0xac <ltmp0+0xac>
      b0: 90000009     	adrp	x9, 0x0 <ltmp0>
      b4: 91000129     	add	x9, x9, #0x0
      b8: 91002129     	add	x9, x9, #0x8
      bc: aa0903e0     	mov	x0, x9
      c0: 9e670340     	fmov	d0, x26
      c4: 0e043c14     	mov.s	w20, v0[0]
      c8: aa1403e1     	mov	x1, x20
      cc: 9e670340     	fmov	d0, x26
      d0: 0e0c3c14     	mov.s	w20, v0[1]
      d4: aa1403e2     	mov	x2, x20
      d8: 94000000     	bl	0xd8 <ltmp0+0xd8>
      dc: 90000009     	adrp	x9, 0x0 <ltmp0>
      e0: 91000129     	add	x9, x9, #0x0
      e4: 91002129     	add	x9, x9, #0x8
      e8: aa0903e0     	mov	x0, x9
      ec: 94000000     	bl	0xec <ltmp0+0xec>
      f0: 90000009     	adrp	x9, 0x0 <ltmp0>
      f4: 91000129     	add	x9, x9, #0x0
      f8: 91002129     	add	x9, x9, #0x8
      fc: aa0903e0     	mov	x0, x9
     100: 94000000     	bl	0x100 <ltmp0+0x100>
     104: 14000001     	b	0x108 <ltmp0+0x108>
     108: 14000001     	b	0x10c <ltmp0+0x10c>
     10c: a94353b3     	ldp	x19, x20, [x29, #0x30]
     110: a9446fba     	ldp	x26, x27, [x29, #0x40]
     114: f9402bbc     	ldr	x28, [x29, #0x50]
     118: 910003bf     	mov	sp, x29
     11c: a9407bfd     	ldp	x29, x30, [sp]
     120: 910043ff     	add	sp, sp, #0x10
     124: d65f03c0     	ret
