
test_pairwise_sum.o:	file format mach-o arm64

Disassembly of section __TEXT,__text:

0000000000000000 <ltmp0>:
       0: 14000001     	b	0x4 <ltmp0+0x4>
       4: a9ba7bfd     	stp	x29, x30, [sp, #-0x60]!
       8: 910003fd     	mov	x29, sp
       c: a90253b3     	stp	x19, x20, [x29, #0x20]
      10: a90367b5     	stp	x21, x25, [x29, #0x30]
      14: a9046fba     	stp	x26, x27, [x29, #0x40]
      18: f9002bbc     	str	x28, [x29, #0x50]
      1c: 9000001c     	adrp	x28, 0x0 <ltmp0>
      20: 9100039c     	add	x28, x28, #0x0
      24: 90000009     	adrp	x9, 0x0 <ltmp0>
      28: 91000129     	add	x9, x9, #0x0
      2c: 91002129     	add	x9, x9, #0x8
      30: aa0903e0     	mov	x0, x9
      34: 94000000     	bl	0x34 <ltmp0+0x34>
      38: d2800094     	mov	x20, #0x4               ; =4
      3c: aa1403e0     	mov	x0, x20
      40: 94000000     	bl	0x40 <ltmp0+0x40>
      44: aa0003f9     	mov	x25, x0
      48: d280002a     	mov	x10, #0x1               ; =1
      4c: d280000b     	mov	x11, #0x0               ; =0
      50: d37df16c     	lsl	x12, x11, #3
      54: 8b0c032d     	add	x13, x25, x12
      58: f90001aa     	str	x10, [x13]
      5c: d28000aa     	mov	x10, #0x5               ; =5
      60: d280002b     	mov	x11, #0x1               ; =1
      64: d37df16c     	lsl	x12, x11, #3
      68: 8b0c032d     	add	x13, x25, x12
      6c: f90001aa     	str	x10, [x13]
      70: d280006a     	mov	x10, #0x3               ; =3
      74: d280004b     	mov	x11, #0x2               ; =2
      78: d37df16c     	lsl	x12, x11, #3
      7c: 8b0c032d     	add	x13, x25, x12
      80: f90001aa     	str	x10, [x13]
      84: d28000ea     	mov	x10, #0x7               ; =7
      88: d280006b     	mov	x11, #0x3               ; =3
      8c: d37df16c     	lsl	x12, x11, #3
      90: 8b0c032d     	add	x13, x25, x12
      94: f90001aa     	str	x10, [x13]
      98: 9000000a     	adrp	x10, 0x0 <ltmp0>
      9c: 9100014a     	add	x10, x10, #0x0
      a0: 9100214a     	add	x10, x10, #0x8
      a4: aa0a03e0     	mov	x0, x10
      a8: d280000a     	mov	x10, #0x0               ; =0
      ac: d100232c     	sub	x12, x25, #0x8
      b0: f940018b     	ldr	x11, [x12]
      b4: eb0b015f     	cmp	x10, x11
      b8: 54003202     	b.hs	0x6f8 <ltmp0+0x6f8>
      bc: aa0a03eb     	mov	x11, x10
      c0: d37df16b     	lsl	x11, x11, #3
      c4: 8b0b032c     	add	x12, x25, x11
      c8: f940018a     	ldr	x10, [x12]
      cc: aa0a03e1     	mov	x1, x10
      d0: d280002a     	mov	x10, #0x1               ; =1
      d4: d100232c     	sub	x12, x25, #0x8
      d8: f940018b     	ldr	x11, [x12]
      dc: eb0b015f     	cmp	x10, x11
      e0: 540030c2     	b.hs	0x6f8 <ltmp0+0x6f8>
      e4: aa0a03eb     	mov	x11, x10
      e8: d37df16b     	lsl	x11, x11, #3
      ec: 8b0b032c     	add	x12, x25, x11
      f0: f940018a     	ldr	x10, [x12]
      f4: aa0a03e2     	mov	x2, x10
      f8: d280004a     	mov	x10, #0x2               ; =2
      fc: d100232c     	sub	x12, x25, #0x8
     100: f940018b     	ldr	x11, [x12]
     104: eb0b015f     	cmp	x10, x11
     108: 54002f82     	b.hs	0x6f8 <ltmp0+0x6f8>
     10c: aa0a03eb     	mov	x11, x10
     110: d37df16b     	lsl	x11, x11, #3
     114: 8b0b032c     	add	x12, x25, x11
     118: f940018a     	ldr	x10, [x12]
     11c: aa0a03e3     	mov	x3, x10
     120: d280006a     	mov	x10, #0x3               ; =3
     124: d100232c     	sub	x12, x25, #0x8
     128: f940018b     	ldr	x11, [x12]
     12c: eb0b015f     	cmp	x10, x11
     130: 54002e42     	b.hs	0x6f8 <ltmp0+0x6f8>
     134: aa0a03eb     	mov	x11, x10
     138: d37df16b     	lsl	x11, x11, #3
     13c: 8b0b032c     	add	x12, x25, x11
     140: f940018a     	ldr	x10, [x12]
     144: aa0a03e4     	mov	x4, x10
     148: 94000000     	bl	0x148 <ltmp0+0x148>
     14c: d100232a     	sub	x10, x25, #0x8
     150: f9400149     	ldr	x9, [x10]
     154: d280004a     	mov	x10, #0x2               ; =2
     158: 9aca0d29     	sdiv	x9, x9, x10
     15c: aa0903f4     	mov	x20, x9
     160: aa1403e0     	mov	x0, x20
     164: 94000000     	bl	0x164 <ltmp0+0x164>
     168: aa0003fb     	mov	x27, x0
     16c: 4c407b20     	ld1.4s	{ v0 }, [x25]
     170: 4c407b21     	ld1.4s	{ v1 }, [x25]
     174: 4ea1bc02     	addp.4s	v2, v0, v1
     178: 4c007b62     	st1.4s	{ v2 }, [x27]
     17c: 9000000a     	adrp	x10, 0x0 <ltmp0>
     180: 9100014a     	add	x10, x10, #0x0
     184: 9100214a     	add	x10, x10, #0x8
     188: aa0a03e0     	mov	x0, x10
     18c: d280000a     	mov	x10, #0x0               ; =0
     190: d100236c     	sub	x12, x27, #0x8
     194: f940018b     	ldr	x11, [x12]
     198: eb0b015f     	cmp	x10, x11
     19c: 54002ae2     	b.hs	0x6f8 <ltmp0+0x6f8>
     1a0: aa0a03eb     	mov	x11, x10
     1a4: d37df16b     	lsl	x11, x11, #3
     1a8: 8b0b036c     	add	x12, x27, x11
     1ac: f940018a     	ldr	x10, [x12]
     1b0: aa0a03e1     	mov	x1, x10
     1b4: d280002a     	mov	x10, #0x1               ; =1
     1b8: d100236c     	sub	x12, x27, #0x8
     1bc: f940018b     	ldr	x11, [x12]
     1c0: eb0b015f     	cmp	x10, x11
     1c4: 540029a2     	b.hs	0x6f8 <ltmp0+0x6f8>
     1c8: aa0a03eb     	mov	x11, x10
     1cc: d37df16b     	lsl	x11, x11, #3
     1d0: 8b0b036c     	add	x12, x27, x11
     1d4: f940018a     	ldr	x10, [x12]
     1d8: aa0a03e2     	mov	x2, x10
     1dc: 94000000     	bl	0x1dc <ltmp0+0x1dc>
     1e0: d2800009     	mov	x9, #0x0                ; =0
     1e4: d100236b     	sub	x11, x27, #0x8
     1e8: f940016a     	ldr	x10, [x11]
     1ec: eb0a013f     	cmp	x9, x10
     1f0: 54002842     	b.hs	0x6f8 <ltmp0+0x6f8>
     1f4: aa0903ea     	mov	x10, x9
     1f8: d37df14a     	lsl	x10, x10, #3
     1fc: 8b0a036b     	add	x11, x27, x10
     200: f9400169     	ldr	x9, [x11]
     204: f100193f     	cmp	x9, #0x6
     208: 9a9f17ea     	cset	x10, eq
     20c: eb1f015f     	cmp	x10, xzr
     210: 540004c0     	b.eq	0x2a8 <ltmp0+0x2a8>
     214: 14000111     	b	0x658 <ltmp0+0x658>
     218: 90000009     	adrp	x9, 0x0 <ltmp0>
     21c: 91000129     	add	x9, x9, #0x0
     220: 91002129     	add	x9, x9, #0x8
     224: aa0903e0     	mov	x0, x9
     228: 94000000     	bl	0x228 <ltmp0+0x228>
     22c: 90000009     	adrp	x9, 0x0 <ltmp0>
     230: 91000129     	add	x9, x9, #0x0
     234: 91002129     	add	x9, x9, #0x8
     238: aa0903e0     	mov	x0, x9
     23c: 94000000     	bl	0x23c <ltmp0+0x23c>
     240: 90000009     	adrp	x9, 0x0 <ltmp0>
     244: 91000129     	add	x9, x9, #0x0
     248: 91002129     	add	x9, x9, #0x8
     24c: aa0903e0     	mov	x0, x9
     250: d2800009     	mov	x9, #0x0                ; =0
     254: d100234b     	sub	x11, x26, #0x8
     258: f940016a     	ldr	x10, [x11]
     25c: eb0a013f     	cmp	x9, x10
     260: 540024c2     	b.hs	0x6f8 <ltmp0+0x6f8>
     264: aa0903ea     	mov	x10, x9
     268: d37df14a     	lsl	x10, x10, #3
     26c: 8b0a034b     	add	x11, x26, x10
     270: f9400169     	ldr	x9, [x11]
     274: aa0903e1     	mov	x1, x9
     278: d2800029     	mov	x9, #0x1                ; =1
     27c: d100234b     	sub	x11, x26, #0x8
     280: f940016a     	ldr	x10, [x11]
     284: eb0a013f     	cmp	x9, x10
     288: 54002382     	b.hs	0x6f8 <ltmp0+0x6f8>
     28c: aa0903ea     	mov	x10, x9
     290: d37df14a     	lsl	x10, x10, #3
     294: 8b0a034b     	add	x11, x26, x10
     298: f9400169     	ldr	x9, [x11]
     29c: aa0903e2     	mov	x2, x9
     2a0: 94000000     	bl	0x2a0 <ltmp0+0x2a0>
     2a4: 140000e7     	b	0x640 <ltmp0+0x640>
     2a8: 90000009     	adrp	x9, 0x0 <ltmp0>
     2ac: 91000129     	add	x9, x9, #0x0
     2b0: 91002129     	add	x9, x9, #0x8
     2b4: aa0903e0     	mov	x0, x9
     2b8: 94000000     	bl	0x2b8 <ltmp0+0x2b8>
     2bc: 90000009     	adrp	x9, 0x0 <ltmp0>
     2c0: 91000129     	add	x9, x9, #0x0
     2c4: 91002129     	add	x9, x9, #0x8
     2c8: aa0903e0     	mov	x0, x9
     2cc: 94000000     	bl	0x2cc <ltmp0+0x2cc>
     2d0: 90000009     	adrp	x9, 0x0 <ltmp0>
     2d4: 91000129     	add	x9, x9, #0x0
     2d8: 91002129     	add	x9, x9, #0x8
     2dc: aa0903e0     	mov	x0, x9
     2e0: d2800009     	mov	x9, #0x0                ; =0
     2e4: d100236b     	sub	x11, x27, #0x8
     2e8: f940016a     	ldr	x10, [x11]
     2ec: eb0a013f     	cmp	x9, x10
     2f0: 54002042     	b.hs	0x6f8 <ltmp0+0x6f8>
     2f4: aa0903ea     	mov	x10, x9
     2f8: d37df14a     	lsl	x10, x10, #3
     2fc: 8b0a036b     	add	x11, x27, x10
     300: f9400169     	ldr	x9, [x11]
     304: aa0903e1     	mov	x1, x9
     308: d2800029     	mov	x9, #0x1                ; =1
     30c: d100236b     	sub	x11, x27, #0x8
     310: f940016a     	ldr	x10, [x11]
     314: eb0a013f     	cmp	x9, x10
     318: 54001f02     	b.hs	0x6f8 <ltmp0+0x6f8>
     31c: aa0903ea     	mov	x10, x9
     320: d37df14a     	lsl	x10, x10, #3
     324: 8b0a036b     	add	x11, x27, x10
     328: f9400169     	ldr	x9, [x11]
     32c: aa0903e2     	mov	x2, x9
     330: 94000000     	bl	0x330 <ltmp0+0x330>
     334: 1400004a     	b	0x45c <ltmp0+0x45c>
     338: 90000009     	adrp	x9, 0x0 <ltmp0>
     33c: 91000129     	add	x9, x9, #0x0
     340: 91002129     	add	x9, x9, #0x8
     344: aa0903e0     	mov	x0, x9
     348: 94000000     	bl	0x348 <ltmp0+0x348>
     34c: 90000009     	adrp	x9, 0x0 <ltmp0>
     350: 91000129     	add	x9, x9, #0x0
     354: 91002129     	add	x9, x9, #0x8
     358: aa0903e0     	mov	x0, x9
     35c: 94000000     	bl	0x35c <ltmp0+0x35c>
     360: 90000009     	adrp	x9, 0x0 <ltmp0>
     364: 91000129     	add	x9, x9, #0x0
     368: 91002129     	add	x9, x9, #0x8
     36c: aa0903e0     	mov	x0, x9
     370: d2800009     	mov	x9, #0x0                ; =0
     374: d100236b     	sub	x11, x27, #0x8
     378: f940016a     	ldr	x10, [x11]
     37c: eb0a013f     	cmp	x9, x10
     380: 54001bc2     	b.hs	0x6f8 <ltmp0+0x6f8>
     384: aa0903ea     	mov	x10, x9
     388: d37df14a     	lsl	x10, x10, #3
     38c: 8b0a036b     	add	x11, x27, x10
     390: f9400169     	ldr	x9, [x11]
     394: aa0903e1     	mov	x1, x9
     398: d2800029     	mov	x9, #0x1                ; =1
     39c: d100236b     	sub	x11, x27, #0x8
     3a0: f940016a     	ldr	x10, [x11]
     3a4: eb0a013f     	cmp	x9, x10
     3a8: 54001a82     	b.hs	0x6f8 <ltmp0+0x6f8>
     3ac: aa0903ea     	mov	x10, x9
     3b0: d37df14a     	lsl	x10, x10, #3
     3b4: 8b0a036b     	add	x11, x27, x10
     3b8: f9400169     	ldr	x9, [x11]
     3bc: aa0903e2     	mov	x2, x9
     3c0: 94000000     	bl	0x3c0 <ltmp0+0x3c0>
     3c4: 14000026     	b	0x45c <ltmp0+0x45c>
     3c8: 90000009     	adrp	x9, 0x0 <ltmp0>
     3cc: 91000129     	add	x9, x9, #0x0
     3d0: 91002129     	add	x9, x9, #0x8
     3d4: aa0903e0     	mov	x0, x9
     3d8: 94000000     	bl	0x3d8 <ltmp0+0x3d8>
     3dc: 90000009     	adrp	x9, 0x0 <ltmp0>
     3e0: 91000129     	add	x9, x9, #0x0
     3e4: 91002129     	add	x9, x9, #0x8
     3e8: aa0903e0     	mov	x0, x9
     3ec: 94000000     	bl	0x3ec <ltmp0+0x3ec>
     3f0: 90000009     	adrp	x9, 0x0 <ltmp0>
     3f4: 91000129     	add	x9, x9, #0x0
     3f8: 91002129     	add	x9, x9, #0x8
     3fc: aa0903e0     	mov	x0, x9
     400: d2800009     	mov	x9, #0x0                ; =0
     404: d100234b     	sub	x11, x26, #0x8
     408: f940016a     	ldr	x10, [x11]
     40c: eb0a013f     	cmp	x9, x10
     410: 54001742     	b.hs	0x6f8 <ltmp0+0x6f8>
     414: aa0903ea     	mov	x10, x9
     418: d37df14a     	lsl	x10, x10, #3
     41c: 8b0a034b     	add	x11, x26, x10
     420: f9400169     	ldr	x9, [x11]
     424: aa0903e1     	mov	x1, x9
     428: d2800029     	mov	x9, #0x1                ; =1
     42c: d100234b     	sub	x11, x26, #0x8
     430: f940016a     	ldr	x10, [x11]
     434: eb0a013f     	cmp	x9, x10
     438: 54001602     	b.hs	0x6f8 <ltmp0+0x6f8>
     43c: aa0903ea     	mov	x10, x9
     440: d37df14a     	lsl	x10, x10, #3
     444: 8b0a034b     	add	x11, x26, x10
     448: f9400169     	ldr	x9, [x11]
     44c: aa0903e2     	mov	x2, x9
     450: 94000000     	bl	0x450 <ltmp0+0x450>
     454: 1400007b     	b	0x640 <ltmp0+0x640>
     458: 140000ad     	b	0x70c <ltmp0+0x70c>
     45c: 90000009     	adrp	x9, 0x0 <ltmp0>
     460: 91000129     	add	x9, x9, #0x0
     464: 91002129     	add	x9, x9, #0x8
     468: aa0903e0     	mov	x0, x9
     46c: 94000000     	bl	0x46c <ltmp0+0x46c>
     470: d2800049     	mov	x9, #0x2                ; =2
     474: d280000a     	mov	x10, #0x0               ; =0
     478: d37df14b     	lsl	x11, x10, #3
     47c: 8b0b032c     	add	x12, x25, x11
     480: f9000189     	str	x9, [x12]
     484: d2800089     	mov	x9, #0x4                ; =4
     488: d280002a     	mov	x10, #0x1               ; =1
     48c: d37df14b     	lsl	x11, x10, #3
     490: 8b0b032c     	add	x12, x25, x11
     494: f9000189     	str	x9, [x12]
     498: d28000c9     	mov	x9, #0x6                ; =6
     49c: d280004a     	mov	x10, #0x2               ; =2
     4a0: d37df14b     	lsl	x11, x10, #3
     4a4: 8b0b032c     	add	x12, x25, x11
     4a8: f9000189     	str	x9, [x12]
     4ac: d2800109     	mov	x9, #0x8                ; =8
     4b0: d280006a     	mov	x10, #0x3               ; =3
     4b4: d37df14b     	lsl	x11, x10, #3
     4b8: 8b0b032c     	add	x12, x25, x11
     4bc: f9000189     	str	x9, [x12]
     4c0: 90000009     	adrp	x9, 0x0 <ltmp0>
     4c4: 91000129     	add	x9, x9, #0x0
     4c8: 91002129     	add	x9, x9, #0x8
     4cc: aa0903e0     	mov	x0, x9
     4d0: d2800009     	mov	x9, #0x0                ; =0
     4d4: d100232b     	sub	x11, x25, #0x8
     4d8: f940016a     	ldr	x10, [x11]
     4dc: eb0a013f     	cmp	x9, x10
     4e0: 540010c2     	b.hs	0x6f8 <ltmp0+0x6f8>
     4e4: aa0903ea     	mov	x10, x9
     4e8: d37df14a     	lsl	x10, x10, #3
     4ec: 8b0a032b     	add	x11, x25, x10
     4f0: f9400169     	ldr	x9, [x11]
     4f4: aa0903e1     	mov	x1, x9
     4f8: d2800029     	mov	x9, #0x1                ; =1
     4fc: d100232b     	sub	x11, x25, #0x8
     500: f940016a     	ldr	x10, [x11]
     504: eb0a013f     	cmp	x9, x10
     508: 54000f82     	b.hs	0x6f8 <ltmp0+0x6f8>
     50c: aa0903ea     	mov	x10, x9
     510: d37df14a     	lsl	x10, x10, #3
     514: 8b0a032b     	add	x11, x25, x10
     518: f9400169     	ldr	x9, [x11]
     51c: aa0903e2     	mov	x2, x9
     520: d2800049     	mov	x9, #0x2                ; =2
     524: d100232b     	sub	x11, x25, #0x8
     528: f940016a     	ldr	x10, [x11]
     52c: eb0a013f     	cmp	x9, x10
     530: 54000e42     	b.hs	0x6f8 <ltmp0+0x6f8>
     534: aa0903ea     	mov	x10, x9
     538: d37df14a     	lsl	x10, x10, #3
     53c: 8b0a032b     	add	x11, x25, x10
     540: f9400169     	ldr	x9, [x11]
     544: aa0903e3     	mov	x3, x9
     548: d2800069     	mov	x9, #0x3                ; =3
     54c: d100232b     	sub	x11, x25, #0x8
     550: f940016a     	ldr	x10, [x11]
     554: eb0a013f     	cmp	x9, x10
     558: 54000d02     	b.hs	0x6f8 <ltmp0+0x6f8>
     55c: aa0903ea     	mov	x10, x9
     560: d37df14a     	lsl	x10, x10, #3
     564: 8b0a032b     	add	x11, x25, x10
     568: f9400169     	ldr	x9, [x11]
     56c: aa0903e4     	mov	x4, x9
     570: 94000000     	bl	0x570 <ltmp0+0x570>
     574: d100232a     	sub	x10, x25, #0x8
     578: f9400149     	ldr	x9, [x10]
     57c: d280004a     	mov	x10, #0x2               ; =2
     580: 9aca0d29     	sdiv	x9, x9, x10
     584: aa0903f4     	mov	x20, x9
     588: aa1403e0     	mov	x0, x20
     58c: 94000000     	bl	0x58c <ltmp0+0x58c>
     590: aa0003fa     	mov	x26, x0
     594: 4c407b20     	ld1.4s	{ v0 }, [x25]
     598: 4c407b21     	ld1.4s	{ v1 }, [x25]
     59c: 4ea1bc02     	addp.4s	v2, v0, v1
     5a0: 4c007b42     	st1.4s	{ v2 }, [x26]
     5a4: 9000000a     	adrp	x10, 0x0 <ltmp0>
     5a8: 9100014a     	add	x10, x10, #0x0
     5ac: 9100214a     	add	x10, x10, #0x8
     5b0: aa0a03e0     	mov	x0, x10
     5b4: d280000a     	mov	x10, #0x0               ; =0
     5b8: d100234c     	sub	x12, x26, #0x8
     5bc: f940018b     	ldr	x11, [x12]
     5c0: eb0b015f     	cmp	x10, x11
     5c4: 540009a2     	b.hs	0x6f8 <ltmp0+0x6f8>
     5c8: aa0a03eb     	mov	x11, x10
     5cc: d37df16b     	lsl	x11, x11, #3
     5d0: 8b0b034c     	add	x12, x26, x11
     5d4: f940018a     	ldr	x10, [x12]
     5d8: aa0a03e1     	mov	x1, x10
     5dc: d280002a     	mov	x10, #0x1               ; =1
     5e0: d100234c     	sub	x12, x26, #0x8
     5e4: f940018b     	ldr	x11, [x12]
     5e8: eb0b015f     	cmp	x10, x11
     5ec: 54000862     	b.hs	0x6f8 <ltmp0+0x6f8>
     5f0: aa0a03eb     	mov	x11, x10
     5f4: d37df16b     	lsl	x11, x11, #3
     5f8: 8b0b034c     	add	x12, x26, x11
     5fc: f940018a     	ldr	x10, [x12]
     600: aa0a03e2     	mov	x2, x10
     604: 94000000     	bl	0x604 <ltmp0+0x604>
     608: d2800009     	mov	x9, #0x0                ; =0
     60c: d100234b     	sub	x11, x26, #0x8
     610: f940016a     	ldr	x10, [x11]
     614: eb0a013f     	cmp	x9, x10
     618: 54000702     	b.hs	0x6f8 <ltmp0+0x6f8>
     61c: aa0903ea     	mov	x10, x9
     620: d37df14a     	lsl	x10, x10, #3
     624: 8b0a034b     	add	x11, x26, x10
     628: f9400169     	ldr	x9, [x11]
     62c: f100193f     	cmp	x9, #0x6
     630: 9a9f17ea     	cset	x10, eq
     634: eb1f015f     	cmp	x10, xzr
     638: 54ffec80     	b.eq	0x3c8 <ltmp0+0x3c8>
     63c: 14000021     	b	0x6c0 <ltmp0+0x6c0>
     640: 90000009     	adrp	x9, 0x0 <ltmp0>
     644: 91000129     	add	x9, x9, #0x0
     648: 91002129     	add	x9, x9, #0x8
     64c: aa0903e0     	mov	x0, x9
     650: 94000000     	bl	0x650 <ltmp0+0x650>
     654: 17ffff81     	b	0x458 <ltmp0+0x458>
     658: d2800029     	mov	x9, #0x1                ; =1
     65c: d100236b     	sub	x11, x27, #0x8
     660: f940016a     	ldr	x10, [x11]
     664: eb0a013f     	cmp	x9, x10
     668: 54000482     	b.hs	0x6f8 <ltmp0+0x6f8>
     66c: aa0903ea     	mov	x10, x9
     670: d37df14a     	lsl	x10, x10, #3
     674: 8b0a036b     	add	x11, x27, x10
     678: f9400169     	ldr	x9, [x11]
     67c: f100293f     	cmp	x9, #0xa
     680: 9a9f17ea     	cset	x10, eq
     684: eb1f015f     	cmp	x10, xzr
     688: 54ffe580     	b.eq	0x338 <ltmp0+0x338>
     68c: 14000007     	b	0x6a8 <ltmp0+0x6a8>
     690: 90000009     	adrp	x9, 0x0 <ltmp0>
     694: 91000129     	add	x9, x9, #0x0
     698: 91002129     	add	x9, x9, #0x8
     69c: aa0903e0     	mov	x0, x9
     6a0: 94000000     	bl	0x6a0 <ltmp0+0x6a0>
     6a4: 17ffffe7     	b	0x640 <ltmp0+0x640>
     6a8: 90000009     	adrp	x9, 0x0 <ltmp0>
     6ac: 91000129     	add	x9, x9, #0x0
     6b0: 91002129     	add	x9, x9, #0x8
     6b4: aa0903e0     	mov	x0, x9
     6b8: 94000000     	bl	0x6b8 <ltmp0+0x6b8>
     6bc: 17ffff68     	b	0x45c <ltmp0+0x45c>
     6c0: d2800029     	mov	x9, #0x1                ; =1
     6c4: d100234b     	sub	x11, x26, #0x8
     6c8: f940016a     	ldr	x10, [x11]
     6cc: eb0a013f     	cmp	x9, x10
     6d0: 54000142     	b.hs	0x6f8 <ltmp0+0x6f8>
     6d4: aa0903ea     	mov	x10, x9
     6d8: d37df14a     	lsl	x10, x10, #3
     6dc: 8b0a034b     	add	x11, x26, x10
     6e0: f9400169     	ldr	x9, [x11]
     6e4: f100393f     	cmp	x9, #0xe
     6e8: 9a9f17ea     	cset	x10, eq
     6ec: eb1f015f     	cmp	x10, xzr
     6f0: 54ffd940     	b.eq	0x218 <ltmp0+0x218>
     6f4: 17ffffe7     	b	0x690 <ltmp0+0x690>
     6f8: d2800000     	mov	x0, #0x0                ; =0
     6fc: d2800001     	mov	x1, #0x0                ; =0
     700: d2800002     	mov	x2, #0x0                ; =0
     704: 94000000     	bl	0x704 <ltmp0+0x704>
     708: d4200000     	brk	#0
     70c: a94253b3     	ldp	x19, x20, [x29, #0x20]
     710: a94367b5     	ldp	x21, x25, [x29, #0x30]
     714: a9446fba     	ldp	x26, x27, [x29, #0x40]
     718: f9402bbc     	ldr	x28, [x29, #0x50]
     71c: 910003bf     	mov	sp, x29
     720: a9407bfd     	ldp	x29, x30, [sp]
     724: 910043ff     	add	sp, sp, #0x10
     728: d65f03c0     	ret
     72c: d28dfa90     	mov	x16, #0x6fd4            ; =28628
     730: f2a007f0     	movk	x16, #0x3f, lsl #16
     734: f2c00030     	movk	x16, #0x1, lsl #32
     738: f2e00010     	movk	x16, #0x0, lsl #48
     73c: d63f0200     	blr	x16
