
test_pairwise_simple.o:	file format mach-o arm64

Disassembly of section __TEXT,__text:

0000000000000000 <ltmp0>:
       0: 14000001     	b	0x4 <ltmp0+0x4>
       4: a9bb7bfd     	stp	x29, x30, [sp, #-0x50]!
       8: 910003fd     	mov	x29, sp
       c: a90253b3     	stp	x19, x20, [x29, #0x20]
      10: a9036fba     	stp	x26, x27, [x29, #0x30]
      14: f90023bc     	str	x28, [x29, #0x40]
      18: 9000001c     	adrp	x28, 0x0 <ltmp0>
      1c: 9100039c     	add	x28, x28, #0x0
      20: 90000009     	adrp	x9, 0x0 <ltmp0>
      24: 91000129     	add	x9, x9, #0x0
      28: 91002129     	add	x9, x9, #0x8
      2c: aa0903e0     	mov	x0, x9
      30: 94000000     	bl	0x30 <ltmp0+0x30>
      34: d2800094     	mov	x20, #0x4               ; =4
      38: aa1403e0     	mov	x0, x20
      3c: 94000000     	bl	0x3c <ltmp0+0x3c>
      40: aa0003fa     	mov	x26, x0
      44: d28000aa     	mov	x10, #0x5               ; =5
      48: d280000b     	mov	x11, #0x0               ; =0
      4c: d37df16c     	lsl	x12, x11, #3
      50: 8b0c034d     	add	x13, x26, x12
      54: f90001aa     	str	x10, [x13]
      58: d280004a     	mov	x10, #0x2               ; =2
      5c: d280002b     	mov	x11, #0x1               ; =1
      60: d37df16c     	lsl	x12, x11, #3
      64: 8b0c034d     	add	x13, x26, x12
      68: f90001aa     	str	x10, [x13]
      6c: d280010a     	mov	x10, #0x8               ; =8
      70: d280004b     	mov	x11, #0x2               ; =2
      74: d37df16c     	lsl	x12, x11, #3
      78: 8b0c034d     	add	x13, x26, x12
      7c: f90001aa     	str	x10, [x13]
      80: d280002a     	mov	x10, #0x1               ; =1
      84: d280006b     	mov	x11, #0x3               ; =3
      88: d37df16c     	lsl	x12, x11, #3
      8c: 8b0c034d     	add	x13, x26, x12
      90: f90001aa     	str	x10, [x13]
      94: d100234b     	sub	x11, x26, #0x8
      98: f940016a     	ldr	x10, [x11]
      9c: d280004b     	mov	x11, #0x2               ; =2
      a0: 9acb0d4a     	sdiv	x10, x10, x11
      a4: aa0a03f4     	mov	x20, x10
      a8: aa1403e0     	mov	x0, x20
      ac: 94000000     	bl	0xac <ltmp0+0xac>
      b0: aa0003fb     	mov	x27, x0
      b4: 4c407b40     	ld1.4s	{ v0 }, [x26]
      b8: 4c407b41     	ld1.4s	{ v1 }, [x26]
      bc: 6ea1f402     	fminp.4s	v2, v0, v1
      c0: 4c007b62     	st1.4s	{ v2 }, [x27]
      c4: 9000000b     	adrp	x11, 0x0 <ltmp0>
      c8: 9100016b     	add	x11, x11, #0x0
      cc: 9100216b     	add	x11, x11, #0x8
      d0: aa0b03e0     	mov	x0, x11
      d4: d280000b     	mov	x11, #0x0               ; =0
      d8: d100236d     	sub	x13, x27, #0x8
      dc: f94001ac     	ldr	x12, [x13]
      e0: eb0c017f     	cmp	x11, x12
      e4: 54000302     	b.hs	0x144 <ltmp0+0x144>
      e8: aa0b03ec     	mov	x12, x11
      ec: d37df18c     	lsl	x12, x12, #3
      f0: 8b0c036d     	add	x13, x27, x12
      f4: f94001ab     	ldr	x11, [x13]
      f8: aa0b03e1     	mov	x1, x11
      fc: d280002b     	mov	x11, #0x1               ; =1
     100: d100236d     	sub	x13, x27, #0x8
     104: f94001ac     	ldr	x12, [x13]
     108: eb0c017f     	cmp	x11, x12
     10c: 540001c2     	b.hs	0x144 <ltmp0+0x144>
     110: aa0b03ec     	mov	x12, x11
     114: d37df18c     	lsl	x12, x12, #3
     118: 8b0c036d     	add	x13, x27, x12
     11c: f94001ab     	ldr	x11, [x13]
     120: aa0b03e2     	mov	x2, x11
     124: 94000000     	bl	0x124 <ltmp0+0x124>
     128: 90000009     	adrp	x9, 0x0 <ltmp0>
     12c: 91000129     	add	x9, x9, #0x0
     130: 91002129     	add	x9, x9, #0x8
     134: aa0903e0     	mov	x0, x9
     138: 94000000     	bl	0x138 <ltmp0+0x138>
     13c: 14000001     	b	0x140 <ltmp0+0x140>
     140: 14000006     	b	0x158 <ltmp0+0x158>
     144: d2800000     	mov	x0, #0x0                ; =0
     148: d2800001     	mov	x1, #0x0                ; =0
     14c: d2800002     	mov	x2, #0x0                ; =0
     150: 94000000     	bl	0x150 <ltmp0+0x150>
     154: d4200000     	brk	#0
     158: a94253b3     	ldp	x19, x20, [x29, #0x20]
     15c: a9436fba     	ldp	x26, x27, [x29, #0x30]
     160: f94023bc     	ldr	x28, [x29, #0x40]
     164: 910003bf     	mov	sp, x29
     168: a9407bfd     	ldp	x29, x30, [sp]
     16c: 910043ff     	add	sp, sp, #0x10
     170: d65f03c0     	ret
     174: d292ef90     	mov	x16, #0x977c            ; =38780
     178: f2a007f0     	movk	x16, #0x3f, lsl #16
     17c: f2c00030     	movk	x16, #0x1, lsl #32
     180: f2e00010     	movk	x16, #0x0, lsl #48
     184: d63f0200     	blr	x16
