
tests/bcl_tests/loop_simple.o:	file format mach-o arm64

Disassembly of section __TEXT,__text:

0000000000000000 <ltmp0>:
       0: 14000001     	b	0x4 <ltmp0+0x4>
       4: a9ba7bfd     	stp	x29, x30, [sp, #-0x60]!
       8: 910003fd     	mov	x29, sp
       c: a902d3b3     	stp	x19, x20, [x29, #0x28]
      10: a903ebb9     	stp	x25, x26, [x29, #0x38]
      14: a904f3bb     	stp	x27, x28, [x29, #0x48]
      18: 9000001c     	adrp	x28, 0x0 <ltmp0>
      1c: 9100039c     	add	x28, x28, #0x0
      20: d2800009     	mov	x9, #0x0                ; =0
      24: aa0903fa     	mov	x26, x9
      28: d2800009     	mov	x9, #0x0                ; =0
      2c: aa0903fb     	mov	x27, x9
      30: 90000009     	adrp	x9, 0x0 <ltmp0>
      34: 91000129     	add	x9, x9, #0x0
      38: 91002129     	add	x9, x9, #0x8
      3c: aa0903e0     	mov	x0, x9
      40: 94000000     	bl	0x40 <ltmp0+0x40>
      44: d2800029     	mov	x9, #0x1                ; =1
      48: aa0903f9     	mov	x25, x9
      4c: 14000020     	b	0xcc <ltmp0+0xcc>
      50: d2800009     	mov	x9, #0x0                ; =0
      54: aa0903e0     	mov	x0, x9
      58: d2800029     	mov	x9, #0x1                ; =1
      5c: f2a04009     	movk	x9, #0x200, lsl #16
      60: aa0903f0     	mov	x16, x9
      64: d4001001     	svc	#0x80
      68: 90000009     	adrp	x9, 0x0 <ltmp0>
      6c: 91000129     	add	x9, x9, #0x0
      70: 91002129     	add	x9, x9, #0x8
      74: aa0903e0     	mov	x0, x9
      78: 94000000     	bl	0x78 <ltmp0+0x78>
      7c: aa1903e0     	mov	x0, x25
      80: 94000000     	bl	0x80 <ltmp0+0x80>
      84: aa1b03e9     	mov	x9, x27
      88: 91000529     	add	x9, x9, #0x1
      8c: aa0903fb     	mov	x27, x9
      90: 14000014     	b	0xe0 <ltmp0+0xe0>
      94: 90000009     	adrp	x9, 0x0 <ltmp0>
      98: 91000129     	add	x9, x9, #0x0
      9c: 91002129     	add	x9, x9, #0x8
      a0: aa0903e0     	mov	x0, x9
      a4: 94000000     	bl	0xa4 <ltmp0+0xa4>
      a8: 90000009     	adrp	x9, 0x0 <ltmp0>
      ac: 91000129     	add	x9, x9, #0x0
      b0: 91002129     	add	x9, x9, #0x8
      b4: aa0903e0     	mov	x0, x9
      b8: 94000000     	bl	0xb8 <ltmp0+0xb8>
      bc: aa1b03e0     	mov	x0, x27
      c0: 94000000     	bl	0xc0 <ltmp0+0xc0>
      c4: 94000000     	bl	0xc4 <ltmp0+0xc4>
      c8: 17ffffe2     	b	0x50 <ltmp0+0x50>
      cc: aa1903e9     	mov	x9, x25
      d0: d28000aa     	mov	x10, #0x5               ; =5
      d4: eb0a013f     	cmp	x9, x10
      d8: 54fffdec     	b.gt	0x94 <ltmp0+0x94>
      dc: 17ffffe3     	b	0x68 <ltmp0+0x68>
      e0: aa1903e9     	mov	x9, x25
      e4: 91000529     	add	x9, x9, #0x1
      e8: aa0903f9     	mov	x25, x9
      ec: 17fffff8     	b	0xcc <ltmp0+0xcc>
      f0: a942d3b3     	ldp	x19, x20, [x29, #0x28]
      f4: a943ebb9     	ldp	x25, x26, [x29, #0x38]
      f8: a944f3bb     	ldp	x27, x28, [x29, #0x48]
      fc: 910003bf     	mov	sp, x29
     100: a9407bfd     	ldp	x29, x30, [sp]
     104: 910043ff     	add	sp, sp, #0x10
     108: d65f03c0     	ret
