
tests/bcl_tests/test_large_vector_performance.o:	file format mach-o arm64

Disassembly of section __TEXT,__text:

0000000000000000 <ltmp0>:
       0: 14000001     	b	0x4 <ltmp0+0x4>
       4: a9b47bfd     	stp	x29, x30, [sp, #-0xc0]!
       8: 910003fd     	mov	x29, sp
       c: a90653b3     	stp	x19, x20, [x29, #0x60]
      10: a9075bb5     	stp	x21, x22, [x29, #0x70]
      14: a90863b7     	stp	x23, x24, [x29, #0x80]
      18: a9096bb9     	stp	x25, x26, [x29, #0x90]
      1c: a90a73bb     	stp	x27, x28, [x29, #0xa0]
      20: 9000001c     	adrp	x28, 0x0 <ltmp0>
      24: 9100039c     	add	x28, x28, #0x0
      28: 90000009     	adrp	x9, 0x0 <ltmp0>
      2c: 91000129     	add	x9, x9, #0x0
      30: 91002129     	add	x9, x9, #0x8
      34: aa0903e0     	mov	x0, x9
      38: 94000000     	bl	0x38 <ltmp0+0x38>
      3c: 90000009     	adrp	x9, 0x0 <ltmp0>
      40: 91000129     	add	x9, x9, #0x0
      44: 91002129     	add	x9, x9, #0x8
      48: aa0903e0     	mov	x0, x9
      4c: 94000000     	bl	0x4c <ltmp0+0x4c>
      50: d2800c89     	mov	x9, #0x64               ; =100
      54: aa0903f5     	mov	x21, x9
      58: d37ff934     	lsl	x20, x9, #1
      5c: aa1403e0     	mov	x0, x20
      60: 94000000     	bl	0x60 <ltmp0+0x60>
      64: aa0003f4     	mov	x20, x0
      68: d1002289     	sub	x9, x20, #0x8
      6c: f9000135     	str	x21, [x9]
      70: aa1403f8     	mov	x24, x20
      74: d2800c89     	mov	x9, #0x64               ; =100
      78: aa0903f4     	mov	x20, x9
      7c: d37ff935     	lsl	x21, x9, #1
      80: aa1503e0     	mov	x0, x21
      84: 94000000     	bl	0x84 <ltmp0+0x84>
      88: aa0003f5     	mov	x21, x0
      8c: d10022a9     	sub	x9, x21, #0x8
      90: f9000134     	str	x20, [x9]
      94: aa1503f7     	mov	x23, x21
      98: 90000009     	adrp	x9, 0x0 <ltmp0>
      9c: 91000129     	add	x9, x9, #0x0
      a0: 91002129     	add	x9, x9, #0x8
      a4: aa0903e0     	mov	x0, x9
      a8: 94000000     	bl	0xa8 <ltmp0+0xa8>
      ac: 90000009     	adrp	x9, 0x0 <ltmp0>
      b0: 91000129     	add	x9, x9, #0x0
      b4: 91002129     	add	x9, x9, #0x8
      b8: aa0903e0     	mov	x0, x9
      bc: 94000000     	bl	0xbc <ltmp0+0xbc>
      c0: d2800009     	mov	x9, #0x0                ; =0
      c4: aa0903f6     	mov	x22, x9
      c8: 140006af     	b	0x1b84 <ltmp0+0x1b84>
      cc: 140006e9     	b	0x1c70 <ltmp0+0x1c70>
      d0: 90000009     	adrp	x9, 0x0 <ltmp0>
      d4: 91000129     	add	x9, x9, #0x0
      d8: 91002129     	add	x9, x9, #0x8
      dc: aa0903e0     	mov	x0, x9
      e0: aa1603e1     	mov	x1, x22
      e4: aa1603e9     	mov	x9, x22
      e8: d280004a     	mov	x10, #0x2               ; =2
      ec: 9b0a7d29     	mul	x9, x9, x10
      f0: d10022eb     	sub	x11, x23, #0x8
      f4: f940016a     	ldr	x10, [x11]
      f8: eb0a013f     	cmp	x9, x10
      fc: 5400db02     	b.hs	0x1c5c <ltmp0+0x1c5c>
     100: aa0903ea     	mov	x10, x9
     104: d37df14a     	lsl	x10, x10, #3
     108: 8b0a02eb     	add	x11, x23, x10
     10c: f9400169     	ldr	x9, [x11]
     110: aa0903e2     	mov	x2, x9
     114: aa1603e9     	mov	x9, x22
     118: d280004a     	mov	x10, #0x2               ; =2
     11c: 9b0a7d29     	mul	x9, x9, x10
     120: 91000529     	add	x9, x9, #0x1
     124: d10022eb     	sub	x11, x23, #0x8
     128: f940016a     	ldr	x10, [x11]
     12c: eb0a013f     	cmp	x9, x10
     130: 5400d962     	b.hs	0x1c5c <ltmp0+0x1c5c>
     134: aa0903ea     	mov	x10, x9
     138: d37df14a     	lsl	x10, x10, #3
     13c: 8b0a02eb     	add	x11, x23, x10
     140: f9400169     	ldr	x9, [x11]
     144: aa0903e3     	mov	x3, x9
     148: 94000000     	bl	0x148 <ltmp0+0x148>
     14c: 140006ac     	b	0x1bfc <ltmp0+0x1bfc>
     150: 90000009     	adrp	x9, 0x0 <ltmp0>
     154: 91000129     	add	x9, x9, #0x0
     158: 91002129     	add	x9, x9, #0x8
     15c: aa0903e0     	mov	x0, x9
     160: aa1603e1     	mov	x1, x22
     164: f94023a9     	ldr	x9, [x29, #0x40]
     168: aa1603ea     	mov	x10, x22
     16c: d280004b     	mov	x11, #0x2               ; =2
     170: 9b0b7d4a     	mul	x10, x10, x11
     174: d100212c     	sub	x12, x9, #0x8
     178: f940018b     	ldr	x11, [x12]
     17c: eb0b015f     	cmp	x10, x11
     180: 5400d6e2     	b.hs	0x1c5c <ltmp0+0x1c5c>
     184: aa0a03eb     	mov	x11, x10
     188: d37df16b     	lsl	x11, x11, #3
     18c: 8b0b012c     	add	x12, x9, x11
     190: f9400189     	ldr	x9, [x12]
     194: aa0903e2     	mov	x2, x9
     198: f94023a9     	ldr	x9, [x29, #0x40]
     19c: aa1603ea     	mov	x10, x22
     1a0: d280004b     	mov	x11, #0x2               ; =2
     1a4: 9b0b7d4a     	mul	x10, x10, x11
     1a8: 9100054a     	add	x10, x10, #0x1
     1ac: d100212c     	sub	x12, x9, #0x8
     1b0: f940018b     	ldr	x11, [x12]
     1b4: eb0b015f     	cmp	x10, x11
     1b8: 5400d522     	b.hs	0x1c5c <ltmp0+0x1c5c>
     1bc: aa0a03eb     	mov	x11, x10
     1c0: d37df16b     	lsl	x11, x11, #3
     1c4: 8b0b012c     	add	x12, x9, x11
     1c8: f9400189     	ldr	x9, [x12]
     1cc: aa0903e3     	mov	x3, x9
     1d0: 94000000     	bl	0x1d0 <ltmp0+0x1d0>
     1d4: 1400068e     	b	0x1c0c <ltmp0+0x1c0c>
     1d8: 90000009     	adrp	x9, 0x0 <ltmp0>
     1dc: 91000129     	add	x9, x9, #0x0
     1e0: 91002129     	add	x9, x9, #0x8
     1e4: aa0903e0     	mov	x0, x9
     1e8: aa1603e1     	mov	x1, x22
     1ec: f9401fa9     	ldr	x9, [x29, #0x38]
     1f0: aa1603ea     	mov	x10, x22
     1f4: d280004b     	mov	x11, #0x2               ; =2
     1f8: 9b0b7d4a     	mul	x10, x10, x11
     1fc: d100212c     	sub	x12, x9, #0x8
     200: f940018b     	ldr	x11, [x12]
     204: eb0b015f     	cmp	x10, x11
     208: 5400d2a2     	b.hs	0x1c5c <ltmp0+0x1c5c>
     20c: aa0a03eb     	mov	x11, x10
     210: d37df16b     	lsl	x11, x11, #3
     214: 8b0b012c     	add	x12, x9, x11
     218: f9400189     	ldr	x9, [x12]
     21c: aa0903e2     	mov	x2, x9
     220: f9401fa9     	ldr	x9, [x29, #0x38]
     224: aa1603ea     	mov	x10, x22
     228: d280004b     	mov	x11, #0x2               ; =2
     22c: 9b0b7d4a     	mul	x10, x10, x11
     230: 9100054a     	add	x10, x10, #0x1
     234: d100212c     	sub	x12, x9, #0x8
     238: f940018b     	ldr	x11, [x12]
     23c: eb0b015f     	cmp	x10, x11
     240: 5400d0e2     	b.hs	0x1c5c <ltmp0+0x1c5c>
     244: aa0a03eb     	mov	x11, x10
     248: d37df16b     	lsl	x11, x11, #3
     24c: 8b0b012c     	add	x12, x9, x11
     250: f9400189     	ldr	x9, [x12]
     254: aa0903e3     	mov	x3, x9
     258: 94000000     	bl	0x258 <ltmp0+0x258>
     25c: 14000670     	b	0x1c1c <ltmp0+0x1c1c>
     260: d28fa014     	mov	x20, #0x7d00            ; =32000
     264: aa1403e0     	mov	x0, x20
     268: 94000000     	bl	0x268 <ltmp0+0x268>
     26c: aa0003f5     	mov	x21, x0
     270: d28fa014     	mov	x20, #0x7d00            ; =32000
     274: aa1403e0     	mov	x0, x20
     278: 94000000     	bl	0x278 <ltmp0+0x278>
     27c: aa0003f4     	mov	x20, x0
     280: d28fa014     	mov	x20, #0x7d00            ; =32000
     284: aa1403e0     	mov	x0, x20
     288: 94000000     	bl	0x288 <ltmp0+0x288>
     28c: aa0003f3     	mov	x19, x0
     290: d28fa00c     	mov	x12, #0x7d00            ; =32000
     294: aa0c03f4     	mov	x20, x12
     298: aa1403e0     	mov	x0, x20
     29c: 94000000     	bl	0x29c <ltmp0+0x29c>
     2a0: aa0003fb     	mov	x27, x0
     2a4: aa1603ed     	mov	x13, x22
     2a8: d280004e     	mov	x14, #0x2               ; =2
     2ac: 9b0e7dad     	mul	x13, x13, x14
     2b0: d37df1ae     	lsl	x14, x13, #3
     2b4: 8b0e030f     	add	x15, x24, x14
     2b8: f90001f5     	str	x21, [x15]
     2bc: aa1603ed     	mov	x13, x22
     2c0: d280004e     	mov	x14, #0x2               ; =2
     2c4: 9b0e7dad     	mul	x13, x13, x14
     2c8: 910005ad     	add	x13, x13, #0x1
     2cc: d37df1ae     	lsl	x14, x13, #3
     2d0: 8b0e030f     	add	x15, x24, x14
     2d4: f90001f4     	str	x20, [x15]
     2d8: aa1603ed     	mov	x13, x22
     2dc: d280004e     	mov	x14, #0x2               ; =2
     2e0: 9b0e7dad     	mul	x13, x13, x14
     2e4: d37df1ae     	lsl	x14, x13, #3
     2e8: 8b0e02ef     	add	x15, x23, x14
     2ec: f90001f3     	str	x19, [x15]
     2f0: aa1603ed     	mov	x13, x22
     2f4: d280004e     	mov	x14, #0x2               ; =2
     2f8: 9b0e7dad     	mul	x13, x13, x14
     2fc: 910005ad     	add	x13, x13, #0x1
     300: d37df1ae     	lsl	x14, x13, #3
     304: 8b0e02ef     	add	x15, x23, x14
     308: f90001fb     	str	x27, [x15]
     30c: 1400064c     	b	0x1c3c <ltmp0+0x1c3c>
     310: 9000000d     	adrp	x13, 0x0 <ltmp0>
     314: 910001ad     	add	x13, x13, #0x0
     318: 910021ad     	add	x13, x13, #0x8
     31c: aa0d03e0     	mov	x0, x13
     320: aa1603e1     	mov	x1, x22
     324: aa1603ed     	mov	x13, x22
     328: d280004e     	mov	x14, #0x2               ; =2
     32c: 9b0e7dad     	mul	x13, x13, x14
     330: d100232f     	sub	x15, x25, #0x8
     334: f94001ee     	ldr	x14, [x15]
     338: eb0e01bf     	cmp	x13, x14
     33c: 5400c902     	b.hs	0x1c5c <ltmp0+0x1c5c>
     340: aa0d03ee     	mov	x14, x13
     344: d37df1ce     	lsl	x14, x14, #3
     348: 8b0e032f     	add	x15, x25, x14
     34c: f94001ed     	ldr	x13, [x15]
     350: aa0d03e2     	mov	x2, x13
     354: aa1603ed     	mov	x13, x22
     358: d280004e     	mov	x14, #0x2               ; =2
     35c: 9b0e7dad     	mul	x13, x13, x14
     360: 910005ad     	add	x13, x13, #0x1
     364: d100232f     	sub	x15, x25, #0x8
     368: f94001ee     	ldr	x14, [x15]
     36c: eb0e01bf     	cmp	x13, x14
     370: 5400c762     	b.hs	0x1c5c <ltmp0+0x1c5c>
     374: aa0d03ee     	mov	x14, x13
     378: d37df1ce     	lsl	x14, x14, #3
     37c: 8b0e032f     	add	x15, x25, x14
     380: f94001ed     	ldr	x13, [x15]
     384: aa0d03e3     	mov	x3, x13
     388: 94000000     	bl	0x388 <ltmp0+0x388>
     38c: 14000628     	b	0x1c2c <ltmp0+0x1c2c>
     390: 90000009     	adrp	x9, 0x0 <ltmp0>
     394: 91000129     	add	x9, x9, #0x0
     398: 91002129     	add	x9, x9, #0x8
     39c: aa0903e0     	mov	x0, x9
     3a0: aa1603e1     	mov	x1, x22
     3a4: aa1603e9     	mov	x9, x22
     3a8: d280004a     	mov	x10, #0x2               ; =2
     3ac: 9b0a7d29     	mul	x9, x9, x10
     3b0: d100230b     	sub	x11, x24, #0x8
     3b4: f940016a     	ldr	x10, [x11]
     3b8: eb0a013f     	cmp	x9, x10
     3bc: 5400c502     	b.hs	0x1c5c <ltmp0+0x1c5c>
     3c0: aa0903ea     	mov	x10, x9
     3c4: d37df14a     	lsl	x10, x10, #3
     3c8: 8b0a030b     	add	x11, x24, x10
     3cc: f9400169     	ldr	x9, [x11]
     3d0: aa0903e2     	mov	x2, x9
     3d4: aa1603e9     	mov	x9, x22
     3d8: d280004a     	mov	x10, #0x2               ; =2
     3dc: 9b0a7d29     	mul	x9, x9, x10
     3e0: 91000529     	add	x9, x9, #0x1
     3e4: d100230b     	sub	x11, x24, #0x8
     3e8: f940016a     	ldr	x10, [x11]
     3ec: eb0a013f     	cmp	x9, x10
     3f0: 5400c362     	b.hs	0x1c5c <ltmp0+0x1c5c>
     3f4: aa0903ea     	mov	x10, x9
     3f8: d37df14a     	lsl	x10, x10, #3
     3fc: 8b0a030b     	add	x11, x24, x10
     400: f9400169     	ldr	x9, [x11]
     404: aa0903e3     	mov	x3, x9
     408: 94000000     	bl	0x408 <ltmp0+0x408>
     40c: 14000610     	b	0x1c4c <ltmp0+0x1c4c>
     410: 90000009     	adrp	x9, 0x0 <ltmp0>
     414: 91000129     	add	x9, x9, #0x0
     418: 91002129     	add	x9, x9, #0x8
     41c: aa0903e0     	mov	x0, x9
     420: 94000000     	bl	0x420 <ltmp0+0x420>
     424: aa1803f3     	mov	x19, x24
     428: aa1703f4     	mov	x20, x23
     42c: d2801909     	mov	x9, #0xc8               ; =200
     430: aa0003ea     	mov	x10, x0
     434: aa0903e0     	mov	x0, x9
     438: 94000000     	bl	0x438 <ltmp0+0x438>
     43c: aa0003e9     	mov	x9, x0
     440: aa0a03e0     	mov	x0, x10
     444: d2800c8b     	mov	x11, #0x64              ; =100
     448: d1002129     	sub	x9, x9, #0x8
     44c: f900012b     	str	x11, [x9]
     450: 91002129     	add	x9, x9, #0x8
     454: aa1803ea     	mov	x10, x24
     458: aa1703eb     	mov	x11, x23
     45c: aa0903ec     	mov	x12, x9
		...
     470: 3dc00140     	ldr	q0, [x10]
     474: 3dc00161     	ldr	q1, [x11]
     478: 4ea16c02     	smin.4s	v2, v0, v1
     47c: 3d800182     	str	q2, [x12]
     480: 9100414a     	add	x10, x10, #0x10
     484: 9100416b     	add	x11, x11, #0x10
     488: 9100418c     	add	x12, x12, #0x10
		...
     494: 3dc00140     	ldr	q0, [x10]
     498: 3dc00161     	ldr	q1, [x11]
     49c: 4ea16c02     	smin.4s	v2, v0, v1
     4a0: 3d800182     	str	q2, [x12]
     4a4: 9100414a     	add	x10, x10, #0x10
     4a8: 9100416b     	add	x11, x11, #0x10
     4ac: 9100418c     	add	x12, x12, #0x10
		...
     4b8: 3dc00140     	ldr	q0, [x10]
     4bc: 3dc00161     	ldr	q1, [x11]
     4c0: 4ea16c02     	smin.4s	v2, v0, v1
     4c4: 3d800182     	str	q2, [x12]
     4c8: 9100414a     	add	x10, x10, #0x10
     4cc: 9100416b     	add	x11, x11, #0x10
     4d0: 9100418c     	add	x12, x12, #0x10
		...
     4dc: 3dc00140     	ldr	q0, [x10]
     4e0: 3dc00161     	ldr	q1, [x11]
     4e4: 4ea16c02     	smin.4s	v2, v0, v1
     4e8: 3d800182     	str	q2, [x12]
     4ec: 9100414a     	add	x10, x10, #0x10
     4f0: 9100416b     	add	x11, x11, #0x10
     4f4: 9100418c     	add	x12, x12, #0x10
		...
     500: 3dc00140     	ldr	q0, [x10]
     504: 3dc00161     	ldr	q1, [x11]
     508: 4ea16c02     	smin.4s	v2, v0, v1
     50c: 3d800182     	str	q2, [x12]
     510: 9100414a     	add	x10, x10, #0x10
     514: 9100416b     	add	x11, x11, #0x10
     518: 9100418c     	add	x12, x12, #0x10
		...
     524: 3dc00140     	ldr	q0, [x10]
     528: 3dc00161     	ldr	q1, [x11]
     52c: 4ea16c02     	smin.4s	v2, v0, v1
     530: 3d800182     	str	q2, [x12]
     534: 9100414a     	add	x10, x10, #0x10
     538: 9100416b     	add	x11, x11, #0x10
     53c: 9100418c     	add	x12, x12, #0x10
		...
     548: 3dc00140     	ldr	q0, [x10]
     54c: 3dc00161     	ldr	q1, [x11]
     550: 4ea16c02     	smin.4s	v2, v0, v1
     554: 3d800182     	str	q2, [x12]
     558: 9100414a     	add	x10, x10, #0x10
     55c: 9100416b     	add	x11, x11, #0x10
     560: 9100418c     	add	x12, x12, #0x10
		...
     56c: 3dc00140     	ldr	q0, [x10]
     570: 3dc00161     	ldr	q1, [x11]
     574: 4ea16c02     	smin.4s	v2, v0, v1
     578: 3d800182     	str	q2, [x12]
     57c: 9100414a     	add	x10, x10, #0x10
     580: 9100416b     	add	x11, x11, #0x10
     584: 9100418c     	add	x12, x12, #0x10
		...
     590: 3dc00140     	ldr	q0, [x10]
     594: 3dc00161     	ldr	q1, [x11]
     598: 4ea16c02     	smin.4s	v2, v0, v1
     59c: 3d800182     	str	q2, [x12]
     5a0: 9100414a     	add	x10, x10, #0x10
     5a4: 9100416b     	add	x11, x11, #0x10
     5a8: 9100418c     	add	x12, x12, #0x10
		...
     5b4: 3dc00140     	ldr	q0, [x10]
     5b8: 3dc00161     	ldr	q1, [x11]
     5bc: 4ea16c02     	smin.4s	v2, v0, v1
     5c0: 3d800182     	str	q2, [x12]
     5c4: 9100414a     	add	x10, x10, #0x10
     5c8: 9100416b     	add	x11, x11, #0x10
     5cc: 9100418c     	add	x12, x12, #0x10
		...
     5d8: 3dc00140     	ldr	q0, [x10]
     5dc: 3dc00161     	ldr	q1, [x11]
     5e0: 4ea16c02     	smin.4s	v2, v0, v1
     5e4: 3d800182     	str	q2, [x12]
     5e8: 9100414a     	add	x10, x10, #0x10
     5ec: 9100416b     	add	x11, x11, #0x10
     5f0: 9100418c     	add	x12, x12, #0x10
		...
     5fc: 3dc00140     	ldr	q0, [x10]
     600: 3dc00161     	ldr	q1, [x11]
     604: 4ea16c02     	smin.4s	v2, v0, v1
     608: 3d800182     	str	q2, [x12]
     60c: 9100414a     	add	x10, x10, #0x10
     610: 9100416b     	add	x11, x11, #0x10
     614: 9100418c     	add	x12, x12, #0x10
		...
     620: 3dc00140     	ldr	q0, [x10]
     624: 3dc00161     	ldr	q1, [x11]
     628: 4ea16c02     	smin.4s	v2, v0, v1
     62c: 3d800182     	str	q2, [x12]
     630: 9100414a     	add	x10, x10, #0x10
     634: 9100416b     	add	x11, x11, #0x10
     638: 9100418c     	add	x12, x12, #0x10
		...
     644: 3dc00140     	ldr	q0, [x10]
     648: 3dc00161     	ldr	q1, [x11]
     64c: 4ea16c02     	smin.4s	v2, v0, v1
     650: 3d800182     	str	q2, [x12]
     654: 9100414a     	add	x10, x10, #0x10
     658: 9100416b     	add	x11, x11, #0x10
     65c: 9100418c     	add	x12, x12, #0x10
		...
     668: 3dc00140     	ldr	q0, [x10]
     66c: 3dc00161     	ldr	q1, [x11]
     670: 4ea16c02     	smin.4s	v2, v0, v1
     674: 3d800182     	str	q2, [x12]
     678: 9100414a     	add	x10, x10, #0x10
     67c: 9100416b     	add	x11, x11, #0x10
     680: 9100418c     	add	x12, x12, #0x10
		...
     68c: 3dc00140     	ldr	q0, [x10]
     690: 3dc00161     	ldr	q1, [x11]
     694: 4ea16c02     	smin.4s	v2, v0, v1
     698: 3d800182     	str	q2, [x12]
     69c: 9100414a     	add	x10, x10, #0x10
     6a0: 9100416b     	add	x11, x11, #0x10
     6a4: 9100418c     	add	x12, x12, #0x10
		...
     6b0: 3dc00140     	ldr	q0, [x10]
     6b4: 3dc00161     	ldr	q1, [x11]
     6b8: 4ea16c02     	smin.4s	v2, v0, v1
     6bc: 3d800182     	str	q2, [x12]
     6c0: 9100414a     	add	x10, x10, #0x10
     6c4: 9100416b     	add	x11, x11, #0x10
     6c8: 9100418c     	add	x12, x12, #0x10
		...
     6d4: 3dc00140     	ldr	q0, [x10]
     6d8: 3dc00161     	ldr	q1, [x11]
     6dc: 4ea16c02     	smin.4s	v2, v0, v1
     6e0: 3d800182     	str	q2, [x12]
     6e4: 9100414a     	add	x10, x10, #0x10
     6e8: 9100416b     	add	x11, x11, #0x10
     6ec: 9100418c     	add	x12, x12, #0x10
		...
     6f8: 3dc00140     	ldr	q0, [x10]
     6fc: 3dc00161     	ldr	q1, [x11]
     700: 4ea16c02     	smin.4s	v2, v0, v1
     704: 3d800182     	str	q2, [x12]
     708: 9100414a     	add	x10, x10, #0x10
     70c: 9100416b     	add	x11, x11, #0x10
     710: 9100418c     	add	x12, x12, #0x10
		...
     71c: 3dc00140     	ldr	q0, [x10]
     720: 3dc00161     	ldr	q1, [x11]
     724: 4ea16c02     	smin.4s	v2, v0, v1
     728: 3d800182     	str	q2, [x12]
     72c: 9100414a     	add	x10, x10, #0x10
     730: 9100416b     	add	x11, x11, #0x10
     734: 9100418c     	add	x12, x12, #0x10
		...
     740: 3dc00140     	ldr	q0, [x10]
     744: 3dc00161     	ldr	q1, [x11]
     748: 4ea16c02     	smin.4s	v2, v0, v1
     74c: 3d800182     	str	q2, [x12]
     750: 9100414a     	add	x10, x10, #0x10
     754: 9100416b     	add	x11, x11, #0x10
     758: 9100418c     	add	x12, x12, #0x10
		...
     764: 3dc00140     	ldr	q0, [x10]
     768: 3dc00161     	ldr	q1, [x11]
     76c: 4ea16c02     	smin.4s	v2, v0, v1
     770: 3d800182     	str	q2, [x12]
     774: 9100414a     	add	x10, x10, #0x10
     778: 9100416b     	add	x11, x11, #0x10
     77c: 9100418c     	add	x12, x12, #0x10
		...
     788: 3dc00140     	ldr	q0, [x10]
     78c: 3dc00161     	ldr	q1, [x11]
     790: 4ea16c02     	smin.4s	v2, v0, v1
     794: 3d800182     	str	q2, [x12]
     798: 9100414a     	add	x10, x10, #0x10
     79c: 9100416b     	add	x11, x11, #0x10
     7a0: 9100418c     	add	x12, x12, #0x10
		...
     7ac: 3dc00140     	ldr	q0, [x10]
     7b0: 3dc00161     	ldr	q1, [x11]
     7b4: 4ea16c02     	smin.4s	v2, v0, v1
     7b8: 3d800182     	str	q2, [x12]
     7bc: 9100414a     	add	x10, x10, #0x10
     7c0: 9100416b     	add	x11, x11, #0x10
     7c4: 9100418c     	add	x12, x12, #0x10
		...
     7d0: 3dc00140     	ldr	q0, [x10]
     7d4: 3dc00161     	ldr	q1, [x11]
     7d8: 4ea16c02     	smin.4s	v2, v0, v1
     7dc: 3d800182     	str	q2, [x12]
     7e0: 9100414a     	add	x10, x10, #0x10
     7e4: 9100416b     	add	x11, x11, #0x10
     7e8: 9100418c     	add	x12, x12, #0x10
		...
     7f4: 3dc00140     	ldr	q0, [x10]
     7f8: 3dc00161     	ldr	q1, [x11]
     7fc: 4ea16c02     	smin.4s	v2, v0, v1
     800: 3d800182     	str	q2, [x12]
     804: 9100414a     	add	x10, x10, #0x10
     808: 9100416b     	add	x11, x11, #0x10
     80c: 9100418c     	add	x12, x12, #0x10
		...
     818: 3dc00140     	ldr	q0, [x10]
     81c: 3dc00161     	ldr	q1, [x11]
     820: 4ea16c02     	smin.4s	v2, v0, v1
     824: 3d800182     	str	q2, [x12]
     828: 9100414a     	add	x10, x10, #0x10
     82c: 9100416b     	add	x11, x11, #0x10
     830: 9100418c     	add	x12, x12, #0x10
		...
     83c: 3dc00140     	ldr	q0, [x10]
     840: 3dc00161     	ldr	q1, [x11]
     844: 4ea16c02     	smin.4s	v2, v0, v1
     848: 3d800182     	str	q2, [x12]
     84c: 9100414a     	add	x10, x10, #0x10
     850: 9100416b     	add	x11, x11, #0x10
     854: 9100418c     	add	x12, x12, #0x10
		...
     860: 3dc00140     	ldr	q0, [x10]
     864: 3dc00161     	ldr	q1, [x11]
     868: 4ea16c02     	smin.4s	v2, v0, v1
     86c: 3d800182     	str	q2, [x12]
     870: 9100414a     	add	x10, x10, #0x10
     874: 9100416b     	add	x11, x11, #0x10
     878: 9100418c     	add	x12, x12, #0x10
		...
     884: 3dc00140     	ldr	q0, [x10]
     888: 3dc00161     	ldr	q1, [x11]
     88c: 4ea16c02     	smin.4s	v2, v0, v1
     890: 3d800182     	str	q2, [x12]
     894: 9100414a     	add	x10, x10, #0x10
     898: 9100416b     	add	x11, x11, #0x10
     89c: 9100418c     	add	x12, x12, #0x10
		...
     8a8: 3dc00140     	ldr	q0, [x10]
     8ac: 3dc00161     	ldr	q1, [x11]
     8b0: 4ea16c02     	smin.4s	v2, v0, v1
     8b4: 3d800182     	str	q2, [x12]
     8b8: 9100414a     	add	x10, x10, #0x10
     8bc: 9100416b     	add	x11, x11, #0x10
     8c0: 9100418c     	add	x12, x12, #0x10
		...
     8cc: 3dc00140     	ldr	q0, [x10]
     8d0: 3dc00161     	ldr	q1, [x11]
     8d4: 4ea16c02     	smin.4s	v2, v0, v1
     8d8: 3d800182     	str	q2, [x12]
     8dc: 9100414a     	add	x10, x10, #0x10
     8e0: 9100416b     	add	x11, x11, #0x10
     8e4: 9100418c     	add	x12, x12, #0x10
		...
     8f0: 3dc00140     	ldr	q0, [x10]
     8f4: 3dc00161     	ldr	q1, [x11]
     8f8: 4ea16c02     	smin.4s	v2, v0, v1
     8fc: 3d800182     	str	q2, [x12]
     900: 9100414a     	add	x10, x10, #0x10
     904: 9100416b     	add	x11, x11, #0x10
     908: 9100418c     	add	x12, x12, #0x10
		...
     914: 3dc00140     	ldr	q0, [x10]
     918: 3dc00161     	ldr	q1, [x11]
     91c: 4ea16c02     	smin.4s	v2, v0, v1
     920: 3d800182     	str	q2, [x12]
     924: 9100414a     	add	x10, x10, #0x10
     928: 9100416b     	add	x11, x11, #0x10
     92c: 9100418c     	add	x12, x12, #0x10
		...
     938: 3dc00140     	ldr	q0, [x10]
     93c: 3dc00161     	ldr	q1, [x11]
     940: 4ea16c02     	smin.4s	v2, v0, v1
     944: 3d800182     	str	q2, [x12]
     948: 9100414a     	add	x10, x10, #0x10
     94c: 9100416b     	add	x11, x11, #0x10
     950: 9100418c     	add	x12, x12, #0x10
		...
     95c: 3dc00140     	ldr	q0, [x10]
     960: 3dc00161     	ldr	q1, [x11]
     964: 4ea16c02     	smin.4s	v2, v0, v1
     968: 3d800182     	str	q2, [x12]
     96c: 9100414a     	add	x10, x10, #0x10
     970: 9100416b     	add	x11, x11, #0x10
     974: 9100418c     	add	x12, x12, #0x10
		...
     980: 3dc00140     	ldr	q0, [x10]
     984: 3dc00161     	ldr	q1, [x11]
     988: 4ea16c02     	smin.4s	v2, v0, v1
     98c: 3d800182     	str	q2, [x12]
     990: 9100414a     	add	x10, x10, #0x10
     994: 9100416b     	add	x11, x11, #0x10
     998: 9100418c     	add	x12, x12, #0x10
		...
     9a4: 3dc00140     	ldr	q0, [x10]
     9a8: 3dc00161     	ldr	q1, [x11]
     9ac: 4ea16c02     	smin.4s	v2, v0, v1
     9b0: 3d800182     	str	q2, [x12]
     9b4: 9100414a     	add	x10, x10, #0x10
     9b8: 9100416b     	add	x11, x11, #0x10
     9bc: 9100418c     	add	x12, x12, #0x10
		...
     9c8: 3dc00140     	ldr	q0, [x10]
     9cc: 3dc00161     	ldr	q1, [x11]
     9d0: 4ea16c02     	smin.4s	v2, v0, v1
     9d4: 3d800182     	str	q2, [x12]
     9d8: 9100414a     	add	x10, x10, #0x10
     9dc: 9100416b     	add	x11, x11, #0x10
     9e0: 9100418c     	add	x12, x12, #0x10
		...
     9ec: 3dc00140     	ldr	q0, [x10]
     9f0: 3dc00161     	ldr	q1, [x11]
     9f4: 4ea16c02     	smin.4s	v2, v0, v1
     9f8: 3d800182     	str	q2, [x12]
     9fc: 9100414a     	add	x10, x10, #0x10
     a00: 9100416b     	add	x11, x11, #0x10
     a04: 9100418c     	add	x12, x12, #0x10
		...
     a10: 3dc00140     	ldr	q0, [x10]
     a14: 3dc00161     	ldr	q1, [x11]
     a18: 4ea16c02     	smin.4s	v2, v0, v1
     a1c: 3d800182     	str	q2, [x12]
     a20: 9100414a     	add	x10, x10, #0x10
     a24: 9100416b     	add	x11, x11, #0x10
     a28: 9100418c     	add	x12, x12, #0x10
		...
     a34: 3dc00140     	ldr	q0, [x10]
     a38: 3dc00161     	ldr	q1, [x11]
     a3c: 4ea16c02     	smin.4s	v2, v0, v1
     a40: 3d800182     	str	q2, [x12]
     a44: 9100414a     	add	x10, x10, #0x10
     a48: 9100416b     	add	x11, x11, #0x10
     a4c: 9100418c     	add	x12, x12, #0x10
		...
     a58: 3dc00140     	ldr	q0, [x10]
     a5c: 3dc00161     	ldr	q1, [x11]
     a60: 4ea16c02     	smin.4s	v2, v0, v1
     a64: 3d800182     	str	q2, [x12]
     a68: 9100414a     	add	x10, x10, #0x10
     a6c: 9100416b     	add	x11, x11, #0x10
     a70: 9100418c     	add	x12, x12, #0x10
		...
     a7c: 3dc00140     	ldr	q0, [x10]
     a80: 3dc00161     	ldr	q1, [x11]
     a84: 4ea16c02     	smin.4s	v2, v0, v1
     a88: 3d800182     	str	q2, [x12]
     a8c: 9100414a     	add	x10, x10, #0x10
     a90: 9100416b     	add	x11, x11, #0x10
     a94: 9100418c     	add	x12, x12, #0x10
		...
     aa0: 3dc00140     	ldr	q0, [x10]
     aa4: 3dc00161     	ldr	q1, [x11]
     aa8: 4ea16c02     	smin.4s	v2, v0, v1
     aac: 3d800182     	str	q2, [x12]
     ab0: 9100414a     	add	x10, x10, #0x10
     ab4: 9100416b     	add	x11, x11, #0x10
     ab8: 9100418c     	add	x12, x12, #0x10
		...
     ac4: 3dc00140     	ldr	q0, [x10]
     ac8: 3dc00161     	ldr	q1, [x11]
     acc: 4ea16c02     	smin.4s	v2, v0, v1
     ad0: 3d800182     	str	q2, [x12]
     ad4: 9100414a     	add	x10, x10, #0x10
     ad8: 9100416b     	add	x11, x11, #0x10
     adc: 9100418c     	add	x12, x12, #0x10
		...
     ae8: 3dc00140     	ldr	q0, [x10]
     aec: 3dc00161     	ldr	q1, [x11]
     af0: 4ea16c02     	smin.4s	v2, v0, v1
     af4: 3d800182     	str	q2, [x12]
     af8: 9100414a     	add	x10, x10, #0x10
     afc: 9100416b     	add	x11, x11, #0x10
     b00: 9100418c     	add	x12, x12, #0x10
		...
     b0c: 3dc00140     	ldr	q0, [x10]
     b10: 3dc00161     	ldr	q1, [x11]
     b14: 4ea16c02     	smin.4s	v2, v0, v1
     b18: 3d800182     	str	q2, [x12]
     b1c: 9100414a     	add	x10, x10, #0x10
     b20: 9100416b     	add	x11, x11, #0x10
     b24: 9100418c     	add	x12, x12, #0x10
		...
     b30: 3dc00140     	ldr	q0, [x10]
     b34: 3dc00161     	ldr	q1, [x11]
     b38: 4ea16c02     	smin.4s	v2, v0, v1
     b3c: 3d800182     	str	q2, [x12]
     b40: 9100414a     	add	x10, x10, #0x10
     b44: 9100416b     	add	x11, x11, #0x10
     b48: 9100418c     	add	x12, x12, #0x10
		...
     b54: 3dc00140     	ldr	q0, [x10]
     b58: 3dc00161     	ldr	q1, [x11]
     b5c: 4ea16c02     	smin.4s	v2, v0, v1
     b60: 3d800182     	str	q2, [x12]
     b64: 9100414a     	add	x10, x10, #0x10
     b68: 9100416b     	add	x11, x11, #0x10
     b6c: 9100418c     	add	x12, x12, #0x10
		...
     b78: f90023a9     	str	x9, [x29, #0x40]
     b7c: 90000009     	adrp	x9, 0x0 <ltmp0>
     b80: 91000129     	add	x9, x9, #0x0
     b84: 91002129     	add	x9, x9, #0x8
     b88: aa0903e0     	mov	x0, x9
     b8c: 94000000     	bl	0xb8c <ltmp0+0xb8c>
     b90: 90000009     	adrp	x9, 0x0 <ltmp0>
     b94: 91000129     	add	x9, x9, #0x0
     b98: 91002129     	add	x9, x9, #0x8
     b9c: aa0903e0     	mov	x0, x9
     ba0: 94000000     	bl	0xba0 <ltmp0+0xba0>
     ba4: aa1803f5     	mov	x21, x24
     ba8: aa1703f6     	mov	x22, x23
     bac: d2801909     	mov	x9, #0xc8               ; =200
     bb0: aa0003ea     	mov	x10, x0
     bb4: aa0903e0     	mov	x0, x9
     bb8: 94000000     	bl	0xbb8 <ltmp0+0xbb8>
     bbc: aa0003e9     	mov	x9, x0
     bc0: aa0a03e0     	mov	x0, x10
     bc4: d2800c8b     	mov	x11, #0x64              ; =100
     bc8: d1002129     	sub	x9, x9, #0x8
     bcc: f900012b     	str	x11, [x9]
     bd0: 91002129     	add	x9, x9, #0x8
     bd4: aa1803ea     	mov	x10, x24
     bd8: aa1703eb     	mov	x11, x23
     bdc: aa0903ec     	mov	x12, x9
		...
     bf0: 3dc00140     	ldr	q0, [x10]
     bf4: 3dc00161     	ldr	q1, [x11]
     bf8: 4ea16402     	smax.4s	v2, v0, v1
     bfc: 3d800182     	str	q2, [x12]
     c00: 9100414a     	add	x10, x10, #0x10
     c04: 9100416b     	add	x11, x11, #0x10
     c08: 9100418c     	add	x12, x12, #0x10
		...
     c14: 3dc00140     	ldr	q0, [x10]
     c18: 3dc00161     	ldr	q1, [x11]
     c1c: 4ea16402     	smax.4s	v2, v0, v1
     c20: 3d800182     	str	q2, [x12]
     c24: 9100414a     	add	x10, x10, #0x10
     c28: 9100416b     	add	x11, x11, #0x10
     c2c: 9100418c     	add	x12, x12, #0x10
		...
     c38: 3dc00140     	ldr	q0, [x10]
     c3c: 3dc00161     	ldr	q1, [x11]
     c40: 4ea16402     	smax.4s	v2, v0, v1
     c44: 3d800182     	str	q2, [x12]
     c48: 9100414a     	add	x10, x10, #0x10
     c4c: 9100416b     	add	x11, x11, #0x10
     c50: 9100418c     	add	x12, x12, #0x10
		...
     c5c: 3dc00140     	ldr	q0, [x10]
     c60: 3dc00161     	ldr	q1, [x11]
     c64: 4ea16402     	smax.4s	v2, v0, v1
     c68: 3d800182     	str	q2, [x12]
     c6c: 9100414a     	add	x10, x10, #0x10
     c70: 9100416b     	add	x11, x11, #0x10
     c74: 9100418c     	add	x12, x12, #0x10
		...
     c80: 3dc00140     	ldr	q0, [x10]
     c84: 3dc00161     	ldr	q1, [x11]
     c88: 4ea16402     	smax.4s	v2, v0, v1
     c8c: 3d800182     	str	q2, [x12]
     c90: 9100414a     	add	x10, x10, #0x10
     c94: 9100416b     	add	x11, x11, #0x10
     c98: 9100418c     	add	x12, x12, #0x10
		...
     ca4: 3dc00140     	ldr	q0, [x10]
     ca8: 3dc00161     	ldr	q1, [x11]
     cac: 4ea16402     	smax.4s	v2, v0, v1
     cb0: 3d800182     	str	q2, [x12]
     cb4: 9100414a     	add	x10, x10, #0x10
     cb8: 9100416b     	add	x11, x11, #0x10
     cbc: 9100418c     	add	x12, x12, #0x10
		...
     cc8: 3dc00140     	ldr	q0, [x10]
     ccc: 3dc00161     	ldr	q1, [x11]
     cd0: 4ea16402     	smax.4s	v2, v0, v1
     cd4: 3d800182     	str	q2, [x12]
     cd8: 9100414a     	add	x10, x10, #0x10
     cdc: 9100416b     	add	x11, x11, #0x10
     ce0: 9100418c     	add	x12, x12, #0x10
		...
     cec: 3dc00140     	ldr	q0, [x10]
     cf0: 3dc00161     	ldr	q1, [x11]
     cf4: 4ea16402     	smax.4s	v2, v0, v1
     cf8: 3d800182     	str	q2, [x12]
     cfc: 9100414a     	add	x10, x10, #0x10
     d00: 9100416b     	add	x11, x11, #0x10
     d04: 9100418c     	add	x12, x12, #0x10
		...
     d10: 3dc00140     	ldr	q0, [x10]
     d14: 3dc00161     	ldr	q1, [x11]
     d18: 4ea16402     	smax.4s	v2, v0, v1
     d1c: 3d800182     	str	q2, [x12]
     d20: 9100414a     	add	x10, x10, #0x10
     d24: 9100416b     	add	x11, x11, #0x10
     d28: 9100418c     	add	x12, x12, #0x10
		...
     d34: 3dc00140     	ldr	q0, [x10]
     d38: 3dc00161     	ldr	q1, [x11]
     d3c: 4ea16402     	smax.4s	v2, v0, v1
     d40: 3d800182     	str	q2, [x12]
     d44: 9100414a     	add	x10, x10, #0x10
     d48: 9100416b     	add	x11, x11, #0x10
     d4c: 9100418c     	add	x12, x12, #0x10
		...
     d58: 3dc00140     	ldr	q0, [x10]
     d5c: 3dc00161     	ldr	q1, [x11]
     d60: 4ea16402     	smax.4s	v2, v0, v1
     d64: 3d800182     	str	q2, [x12]
     d68: 9100414a     	add	x10, x10, #0x10
     d6c: 9100416b     	add	x11, x11, #0x10
     d70: 9100418c     	add	x12, x12, #0x10
		...
     d7c: 3dc00140     	ldr	q0, [x10]
     d80: 3dc00161     	ldr	q1, [x11]
     d84: 4ea16402     	smax.4s	v2, v0, v1
     d88: 3d800182     	str	q2, [x12]
     d8c: 9100414a     	add	x10, x10, #0x10
     d90: 9100416b     	add	x11, x11, #0x10
     d94: 9100418c     	add	x12, x12, #0x10
		...
     da0: 3dc00140     	ldr	q0, [x10]
     da4: 3dc00161     	ldr	q1, [x11]
     da8: 4ea16402     	smax.4s	v2, v0, v1
     dac: 3d800182     	str	q2, [x12]
     db0: 9100414a     	add	x10, x10, #0x10
     db4: 9100416b     	add	x11, x11, #0x10
     db8: 9100418c     	add	x12, x12, #0x10
		...
     dc4: 3dc00140     	ldr	q0, [x10]
     dc8: 3dc00161     	ldr	q1, [x11]
     dcc: 4ea16402     	smax.4s	v2, v0, v1
     dd0: 3d800182     	str	q2, [x12]
     dd4: 9100414a     	add	x10, x10, #0x10
     dd8: 9100416b     	add	x11, x11, #0x10
     ddc: 9100418c     	add	x12, x12, #0x10
		...
     de8: 3dc00140     	ldr	q0, [x10]
     dec: 3dc00161     	ldr	q1, [x11]
     df0: 4ea16402     	smax.4s	v2, v0, v1
     df4: 3d800182     	str	q2, [x12]
     df8: 9100414a     	add	x10, x10, #0x10
     dfc: 9100416b     	add	x11, x11, #0x10
     e00: 9100418c     	add	x12, x12, #0x10
		...
     e0c: 3dc00140     	ldr	q0, [x10]
     e10: 3dc00161     	ldr	q1, [x11]
     e14: 4ea16402     	smax.4s	v2, v0, v1
     e18: 3d800182     	str	q2, [x12]
     e1c: 9100414a     	add	x10, x10, #0x10
     e20: 9100416b     	add	x11, x11, #0x10
     e24: 9100418c     	add	x12, x12, #0x10
		...
     e30: 3dc00140     	ldr	q0, [x10]
     e34: 3dc00161     	ldr	q1, [x11]
     e38: 4ea16402     	smax.4s	v2, v0, v1
     e3c: 3d800182     	str	q2, [x12]
     e40: 9100414a     	add	x10, x10, #0x10
     e44: 9100416b     	add	x11, x11, #0x10
     e48: 9100418c     	add	x12, x12, #0x10
		...
     e54: 3dc00140     	ldr	q0, [x10]
     e58: 3dc00161     	ldr	q1, [x11]
     e5c: 4ea16402     	smax.4s	v2, v0, v1
     e60: 3d800182     	str	q2, [x12]
     e64: 9100414a     	add	x10, x10, #0x10
     e68: 9100416b     	add	x11, x11, #0x10
     e6c: 9100418c     	add	x12, x12, #0x10
		...
     e78: 3dc00140     	ldr	q0, [x10]
     e7c: 3dc00161     	ldr	q1, [x11]
     e80: 4ea16402     	smax.4s	v2, v0, v1
     e84: 3d800182     	str	q2, [x12]
     e88: 9100414a     	add	x10, x10, #0x10
     e8c: 9100416b     	add	x11, x11, #0x10
     e90: 9100418c     	add	x12, x12, #0x10
		...
     e9c: 3dc00140     	ldr	q0, [x10]
     ea0: 3dc00161     	ldr	q1, [x11]
     ea4: 4ea16402     	smax.4s	v2, v0, v1
     ea8: 3d800182     	str	q2, [x12]
     eac: 9100414a     	add	x10, x10, #0x10
     eb0: 9100416b     	add	x11, x11, #0x10
     eb4: 9100418c     	add	x12, x12, #0x10
		...
     ec0: 3dc00140     	ldr	q0, [x10]
     ec4: 3dc00161     	ldr	q1, [x11]
     ec8: 4ea16402     	smax.4s	v2, v0, v1
     ecc: 3d800182     	str	q2, [x12]
     ed0: 9100414a     	add	x10, x10, #0x10
     ed4: 9100416b     	add	x11, x11, #0x10
     ed8: 9100418c     	add	x12, x12, #0x10
		...
     ee4: 3dc00140     	ldr	q0, [x10]
     ee8: 3dc00161     	ldr	q1, [x11]
     eec: 4ea16402     	smax.4s	v2, v0, v1
     ef0: 3d800182     	str	q2, [x12]
     ef4: 9100414a     	add	x10, x10, #0x10
     ef8: 9100416b     	add	x11, x11, #0x10
     efc: 9100418c     	add	x12, x12, #0x10
		...
     f08: 3dc00140     	ldr	q0, [x10]
     f0c: 3dc00161     	ldr	q1, [x11]
     f10: 4ea16402     	smax.4s	v2, v0, v1
     f14: 3d800182     	str	q2, [x12]
     f18: 9100414a     	add	x10, x10, #0x10
     f1c: 9100416b     	add	x11, x11, #0x10
     f20: 9100418c     	add	x12, x12, #0x10
		...
     f2c: 3dc00140     	ldr	q0, [x10]
     f30: 3dc00161     	ldr	q1, [x11]
     f34: 4ea16402     	smax.4s	v2, v0, v1
     f38: 3d800182     	str	q2, [x12]
     f3c: 9100414a     	add	x10, x10, #0x10
     f40: 9100416b     	add	x11, x11, #0x10
     f44: 9100418c     	add	x12, x12, #0x10
		...
     f50: 3dc00140     	ldr	q0, [x10]
     f54: 3dc00161     	ldr	q1, [x11]
     f58: 4ea16402     	smax.4s	v2, v0, v1
     f5c: 3d800182     	str	q2, [x12]
     f60: 9100414a     	add	x10, x10, #0x10
     f64: 9100416b     	add	x11, x11, #0x10
     f68: 9100418c     	add	x12, x12, #0x10
		...
     f74: 3dc00140     	ldr	q0, [x10]
     f78: 3dc00161     	ldr	q1, [x11]
     f7c: 4ea16402     	smax.4s	v2, v0, v1
     f80: 3d800182     	str	q2, [x12]
     f84: 9100414a     	add	x10, x10, #0x10
     f88: 9100416b     	add	x11, x11, #0x10
     f8c: 9100418c     	add	x12, x12, #0x10
		...
     f98: 3dc00140     	ldr	q0, [x10]
     f9c: 3dc00161     	ldr	q1, [x11]
     fa0: 4ea16402     	smax.4s	v2, v0, v1
     fa4: 3d800182     	str	q2, [x12]
     fa8: 9100414a     	add	x10, x10, #0x10
     fac: 9100416b     	add	x11, x11, #0x10
     fb0: 9100418c     	add	x12, x12, #0x10
		...
     fbc: 3dc00140     	ldr	q0, [x10]
     fc0: 3dc00161     	ldr	q1, [x11]
     fc4: 4ea16402     	smax.4s	v2, v0, v1
     fc8: 3d800182     	str	q2, [x12]
     fcc: 9100414a     	add	x10, x10, #0x10
     fd0: 9100416b     	add	x11, x11, #0x10
     fd4: 9100418c     	add	x12, x12, #0x10
		...
     fe0: 3dc00140     	ldr	q0, [x10]
     fe4: 3dc00161     	ldr	q1, [x11]
     fe8: 4ea16402     	smax.4s	v2, v0, v1
     fec: 3d800182     	str	q2, [x12]
     ff0: 9100414a     	add	x10, x10, #0x10
     ff4: 9100416b     	add	x11, x11, #0x10
     ff8: 9100418c     	add	x12, x12, #0x10
		...
    1004: 3dc00140     	ldr	q0, [x10]
    1008: 3dc00161     	ldr	q1, [x11]
    100c: 4ea16402     	smax.4s	v2, v0, v1
    1010: 3d800182     	str	q2, [x12]
    1014: 9100414a     	add	x10, x10, #0x10
    1018: 9100416b     	add	x11, x11, #0x10
    101c: 9100418c     	add	x12, x12, #0x10
		...
    1028: 3dc00140     	ldr	q0, [x10]
    102c: 3dc00161     	ldr	q1, [x11]
    1030: 4ea16402     	smax.4s	v2, v0, v1
    1034: 3d800182     	str	q2, [x12]
    1038: 9100414a     	add	x10, x10, #0x10
    103c: 9100416b     	add	x11, x11, #0x10
    1040: 9100418c     	add	x12, x12, #0x10
		...
    104c: 3dc00140     	ldr	q0, [x10]
    1050: 3dc00161     	ldr	q1, [x11]
    1054: 4ea16402     	smax.4s	v2, v0, v1
    1058: 3d800182     	str	q2, [x12]
    105c: 9100414a     	add	x10, x10, #0x10
    1060: 9100416b     	add	x11, x11, #0x10
    1064: 9100418c     	add	x12, x12, #0x10
		...
    1070: 3dc00140     	ldr	q0, [x10]
    1074: 3dc00161     	ldr	q1, [x11]
    1078: 4ea16402     	smax.4s	v2, v0, v1
    107c: 3d800182     	str	q2, [x12]
    1080: 9100414a     	add	x10, x10, #0x10
    1084: 9100416b     	add	x11, x11, #0x10
    1088: 9100418c     	add	x12, x12, #0x10
		...
    1094: 3dc00140     	ldr	q0, [x10]
    1098: 3dc00161     	ldr	q1, [x11]
    109c: 4ea16402     	smax.4s	v2, v0, v1
    10a0: 3d800182     	str	q2, [x12]
    10a4: 9100414a     	add	x10, x10, #0x10
    10a8: 9100416b     	add	x11, x11, #0x10
    10ac: 9100418c     	add	x12, x12, #0x10
		...
    10b8: 3dc00140     	ldr	q0, [x10]
    10bc: 3dc00161     	ldr	q1, [x11]
    10c0: 4ea16402     	smax.4s	v2, v0, v1
    10c4: 3d800182     	str	q2, [x12]
    10c8: 9100414a     	add	x10, x10, #0x10
    10cc: 9100416b     	add	x11, x11, #0x10
    10d0: 9100418c     	add	x12, x12, #0x10
		...
    10dc: 3dc00140     	ldr	q0, [x10]
    10e0: 3dc00161     	ldr	q1, [x11]
    10e4: 4ea16402     	smax.4s	v2, v0, v1
    10e8: 3d800182     	str	q2, [x12]
    10ec: 9100414a     	add	x10, x10, #0x10
    10f0: 9100416b     	add	x11, x11, #0x10
    10f4: 9100418c     	add	x12, x12, #0x10
		...
    1100: 3dc00140     	ldr	q0, [x10]
    1104: 3dc00161     	ldr	q1, [x11]
    1108: 4ea16402     	smax.4s	v2, v0, v1
    110c: 3d800182     	str	q2, [x12]
    1110: 9100414a     	add	x10, x10, #0x10
    1114: 9100416b     	add	x11, x11, #0x10
    1118: 9100418c     	add	x12, x12, #0x10
		...
    1124: 3dc00140     	ldr	q0, [x10]
    1128: 3dc00161     	ldr	q1, [x11]
    112c: 4ea16402     	smax.4s	v2, v0, v1
    1130: 3d800182     	str	q2, [x12]
    1134: 9100414a     	add	x10, x10, #0x10
    1138: 9100416b     	add	x11, x11, #0x10
    113c: 9100418c     	add	x12, x12, #0x10
		...
    1148: 3dc00140     	ldr	q0, [x10]
    114c: 3dc00161     	ldr	q1, [x11]
    1150: 4ea16402     	smax.4s	v2, v0, v1
    1154: 3d800182     	str	q2, [x12]
    1158: 9100414a     	add	x10, x10, #0x10
    115c: 9100416b     	add	x11, x11, #0x10
    1160: 9100418c     	add	x12, x12, #0x10
		...
    116c: 3dc00140     	ldr	q0, [x10]
    1170: 3dc00161     	ldr	q1, [x11]
    1174: 4ea16402     	smax.4s	v2, v0, v1
    1178: 3d800182     	str	q2, [x12]
    117c: 9100414a     	add	x10, x10, #0x10
    1180: 9100416b     	add	x11, x11, #0x10
    1184: 9100418c     	add	x12, x12, #0x10
		...
    1190: 3dc00140     	ldr	q0, [x10]
    1194: 3dc00161     	ldr	q1, [x11]
    1198: 4ea16402     	smax.4s	v2, v0, v1
    119c: 3d800182     	str	q2, [x12]
    11a0: 9100414a     	add	x10, x10, #0x10
    11a4: 9100416b     	add	x11, x11, #0x10
    11a8: 9100418c     	add	x12, x12, #0x10
		...
    11b4: 3dc00140     	ldr	q0, [x10]
    11b8: 3dc00161     	ldr	q1, [x11]
    11bc: 4ea16402     	smax.4s	v2, v0, v1
    11c0: 3d800182     	str	q2, [x12]
    11c4: 9100414a     	add	x10, x10, #0x10
    11c8: 9100416b     	add	x11, x11, #0x10
    11cc: 9100418c     	add	x12, x12, #0x10
		...
    11d8: 3dc00140     	ldr	q0, [x10]
    11dc: 3dc00161     	ldr	q1, [x11]
    11e0: 4ea16402     	smax.4s	v2, v0, v1
    11e4: 3d800182     	str	q2, [x12]
    11e8: 9100414a     	add	x10, x10, #0x10
    11ec: 9100416b     	add	x11, x11, #0x10
    11f0: 9100418c     	add	x12, x12, #0x10
		...
    11fc: 3dc00140     	ldr	q0, [x10]
    1200: 3dc00161     	ldr	q1, [x11]
    1204: 4ea16402     	smax.4s	v2, v0, v1
    1208: 3d800182     	str	q2, [x12]
    120c: 9100414a     	add	x10, x10, #0x10
    1210: 9100416b     	add	x11, x11, #0x10
    1214: 9100418c     	add	x12, x12, #0x10
		...
    1220: 3dc00140     	ldr	q0, [x10]
    1224: 3dc00161     	ldr	q1, [x11]
    1228: 4ea16402     	smax.4s	v2, v0, v1
    122c: 3d800182     	str	q2, [x12]
    1230: 9100414a     	add	x10, x10, #0x10
    1234: 9100416b     	add	x11, x11, #0x10
    1238: 9100418c     	add	x12, x12, #0x10
		...
    1244: 3dc00140     	ldr	q0, [x10]
    1248: 3dc00161     	ldr	q1, [x11]
    124c: 4ea16402     	smax.4s	v2, v0, v1
    1250: 3d800182     	str	q2, [x12]
    1254: 9100414a     	add	x10, x10, #0x10
    1258: 9100416b     	add	x11, x11, #0x10
    125c: 9100418c     	add	x12, x12, #0x10
		...
    1268: 3dc00140     	ldr	q0, [x10]
    126c: 3dc00161     	ldr	q1, [x11]
    1270: 4ea16402     	smax.4s	v2, v0, v1
    1274: 3d800182     	str	q2, [x12]
    1278: 9100414a     	add	x10, x10, #0x10
    127c: 9100416b     	add	x11, x11, #0x10
    1280: 9100418c     	add	x12, x12, #0x10
		...
    128c: 3dc00140     	ldr	q0, [x10]
    1290: 3dc00161     	ldr	q1, [x11]
    1294: 4ea16402     	smax.4s	v2, v0, v1
    1298: 3d800182     	str	q2, [x12]
    129c: 9100414a     	add	x10, x10, #0x10
    12a0: 9100416b     	add	x11, x11, #0x10
    12a4: 9100418c     	add	x12, x12, #0x10
		...
    12b0: 3dc00140     	ldr	q0, [x10]
    12b4: 3dc00161     	ldr	q1, [x11]
    12b8: 4ea16402     	smax.4s	v2, v0, v1
    12bc: 3d800182     	str	q2, [x12]
    12c0: 9100414a     	add	x10, x10, #0x10
    12c4: 9100416b     	add	x11, x11, #0x10
    12c8: 9100418c     	add	x12, x12, #0x10
		...
    12d4: 3dc00140     	ldr	q0, [x10]
    12d8: 3dc00161     	ldr	q1, [x11]
    12dc: 4ea16402     	smax.4s	v2, v0, v1
    12e0: 3d800182     	str	q2, [x12]
    12e4: 9100414a     	add	x10, x10, #0x10
    12e8: 9100416b     	add	x11, x11, #0x10
    12ec: 9100418c     	add	x12, x12, #0x10
		...
    12f8: f9001fa9     	str	x9, [x29, #0x38]
    12fc: 90000009     	adrp	x9, 0x1000 <ltmp0+0x1000>
    1300: 91000129     	add	x9, x9, #0x0
    1304: 91002129     	add	x9, x9, #0x8
    1308: aa0903e0     	mov	x0, x9
    130c: 94000000     	bl	0x130c <ltmp0+0x130c>
    1310: 90000009     	adrp	x9, 0x1000 <ltmp0+0x1000>
    1314: 91000129     	add	x9, x9, #0x0
    1318: 91002129     	add	x9, x9, #0x8
    131c: aa0903e0     	mov	x0, x9
    1320: 94000000     	bl	0x1320 <ltmp0+0x1320>
    1324: aa1803f7     	mov	x23, x24
    1328: aa1703f8     	mov	x24, x23
    132c: d2801909     	mov	x9, #0xc8               ; =200
    1330: aa0003ea     	mov	x10, x0
    1334: aa0903e0     	mov	x0, x9
    1338: 94000000     	bl	0x1338 <ltmp0+0x1338>
    133c: aa0003e9     	mov	x9, x0
    1340: aa0a03e0     	mov	x0, x10
    1344: d2800c8b     	mov	x11, #0x64              ; =100
    1348: d1002129     	sub	x9, x9, #0x8
    134c: f900012b     	str	x11, [x9]
    1350: 91002129     	add	x9, x9, #0x8
    1354: aa1803ea     	mov	x10, x24
    1358: aa1703eb     	mov	x11, x23
    135c: aa0903ec     	mov	x12, x9
		...
    1370: 3dc00140     	ldr	q0, [x10]
    1374: 3dc00161     	ldr	q1, [x11]
    1378: 4ea18402     	add.4s	v2, v0, v1
    137c: 3d800182     	str	q2, [x12]
    1380: 9100414a     	add	x10, x10, #0x10
    1384: 9100416b     	add	x11, x11, #0x10
    1388: 9100418c     	add	x12, x12, #0x10
		...
    1394: 3dc00140     	ldr	q0, [x10]
    1398: 3dc00161     	ldr	q1, [x11]
    139c: 4ea18402     	add.4s	v2, v0, v1
    13a0: 3d800182     	str	q2, [x12]
    13a4: 9100414a     	add	x10, x10, #0x10
    13a8: 9100416b     	add	x11, x11, #0x10
    13ac: 9100418c     	add	x12, x12, #0x10
		...
    13b8: 3dc00140     	ldr	q0, [x10]
    13bc: 3dc00161     	ldr	q1, [x11]
    13c0: 4ea18402     	add.4s	v2, v0, v1
    13c4: 3d800182     	str	q2, [x12]
    13c8: 9100414a     	add	x10, x10, #0x10
    13cc: 9100416b     	add	x11, x11, #0x10
    13d0: 9100418c     	add	x12, x12, #0x10
		...
    13dc: 3dc00140     	ldr	q0, [x10]
    13e0: 3dc00161     	ldr	q1, [x11]
    13e4: 4ea18402     	add.4s	v2, v0, v1
    13e8: 3d800182     	str	q2, [x12]
    13ec: 9100414a     	add	x10, x10, #0x10
    13f0: 9100416b     	add	x11, x11, #0x10
    13f4: 9100418c     	add	x12, x12, #0x10
		...
    1400: 3dc00140     	ldr	q0, [x10]
    1404: 3dc00161     	ldr	q1, [x11]
    1408: 4ea18402     	add.4s	v2, v0, v1
    140c: 3d800182     	str	q2, [x12]
    1410: 9100414a     	add	x10, x10, #0x10
    1414: 9100416b     	add	x11, x11, #0x10
    1418: 9100418c     	add	x12, x12, #0x10
		...
    1424: 3dc00140     	ldr	q0, [x10]
    1428: 3dc00161     	ldr	q1, [x11]
    142c: 4ea18402     	add.4s	v2, v0, v1
    1430: 3d800182     	str	q2, [x12]
    1434: 9100414a     	add	x10, x10, #0x10
    1438: 9100416b     	add	x11, x11, #0x10
    143c: 9100418c     	add	x12, x12, #0x10
		...
    1448: 3dc00140     	ldr	q0, [x10]
    144c: 3dc00161     	ldr	q1, [x11]
    1450: 4ea18402     	add.4s	v2, v0, v1
    1454: 3d800182     	str	q2, [x12]
    1458: 9100414a     	add	x10, x10, #0x10
    145c: 9100416b     	add	x11, x11, #0x10
    1460: 9100418c     	add	x12, x12, #0x10
		...
    146c: 3dc00140     	ldr	q0, [x10]
    1470: 3dc00161     	ldr	q1, [x11]
    1474: 4ea18402     	add.4s	v2, v0, v1
    1478: 3d800182     	str	q2, [x12]
    147c: 9100414a     	add	x10, x10, #0x10
    1480: 9100416b     	add	x11, x11, #0x10
    1484: 9100418c     	add	x12, x12, #0x10
		...
    1490: 3dc00140     	ldr	q0, [x10]
    1494: 3dc00161     	ldr	q1, [x11]
    1498: 4ea18402     	add.4s	v2, v0, v1
    149c: 3d800182     	str	q2, [x12]
    14a0: 9100414a     	add	x10, x10, #0x10
    14a4: 9100416b     	add	x11, x11, #0x10
    14a8: 9100418c     	add	x12, x12, #0x10
		...
    14b4: 3dc00140     	ldr	q0, [x10]
    14b8: 3dc00161     	ldr	q1, [x11]
    14bc: 4ea18402     	add.4s	v2, v0, v1
    14c0: 3d800182     	str	q2, [x12]
    14c4: 9100414a     	add	x10, x10, #0x10
    14c8: 9100416b     	add	x11, x11, #0x10
    14cc: 9100418c     	add	x12, x12, #0x10
		...
    14d8: 3dc00140     	ldr	q0, [x10]
    14dc: 3dc00161     	ldr	q1, [x11]
    14e0: 4ea18402     	add.4s	v2, v0, v1
    14e4: 3d800182     	str	q2, [x12]
    14e8: 9100414a     	add	x10, x10, #0x10
    14ec: 9100416b     	add	x11, x11, #0x10
    14f0: 9100418c     	add	x12, x12, #0x10
		...
    14fc: 3dc00140     	ldr	q0, [x10]
    1500: 3dc00161     	ldr	q1, [x11]
    1504: 4ea18402     	add.4s	v2, v0, v1
    1508: 3d800182     	str	q2, [x12]
    150c: 9100414a     	add	x10, x10, #0x10
    1510: 9100416b     	add	x11, x11, #0x10
    1514: 9100418c     	add	x12, x12, #0x10
		...
    1520: 3dc00140     	ldr	q0, [x10]
    1524: 3dc00161     	ldr	q1, [x11]
    1528: 4ea18402     	add.4s	v2, v0, v1
    152c: 3d800182     	str	q2, [x12]
    1530: 9100414a     	add	x10, x10, #0x10
    1534: 9100416b     	add	x11, x11, #0x10
    1538: 9100418c     	add	x12, x12, #0x10
		...
    1544: 3dc00140     	ldr	q0, [x10]
    1548: 3dc00161     	ldr	q1, [x11]
    154c: 4ea18402     	add.4s	v2, v0, v1
    1550: 3d800182     	str	q2, [x12]
    1554: 9100414a     	add	x10, x10, #0x10
    1558: 9100416b     	add	x11, x11, #0x10
    155c: 9100418c     	add	x12, x12, #0x10
		...
    1568: 3dc00140     	ldr	q0, [x10]
    156c: 3dc00161     	ldr	q1, [x11]
    1570: 4ea18402     	add.4s	v2, v0, v1
    1574: 3d800182     	str	q2, [x12]
    1578: 9100414a     	add	x10, x10, #0x10
    157c: 9100416b     	add	x11, x11, #0x10
    1580: 9100418c     	add	x12, x12, #0x10
		...
    158c: 3dc00140     	ldr	q0, [x10]
    1590: 3dc00161     	ldr	q1, [x11]
    1594: 4ea18402     	add.4s	v2, v0, v1
    1598: 3d800182     	str	q2, [x12]
    159c: 9100414a     	add	x10, x10, #0x10
    15a0: 9100416b     	add	x11, x11, #0x10
    15a4: 9100418c     	add	x12, x12, #0x10
		...
    15b0: 3dc00140     	ldr	q0, [x10]
    15b4: 3dc00161     	ldr	q1, [x11]
    15b8: 4ea18402     	add.4s	v2, v0, v1
    15bc: 3d800182     	str	q2, [x12]
    15c0: 9100414a     	add	x10, x10, #0x10
    15c4: 9100416b     	add	x11, x11, #0x10
    15c8: 9100418c     	add	x12, x12, #0x10
		...
    15d4: 3dc00140     	ldr	q0, [x10]
    15d8: 3dc00161     	ldr	q1, [x11]
    15dc: 4ea18402     	add.4s	v2, v0, v1
    15e0: 3d800182     	str	q2, [x12]
    15e4: 9100414a     	add	x10, x10, #0x10
    15e8: 9100416b     	add	x11, x11, #0x10
    15ec: 9100418c     	add	x12, x12, #0x10
		...
    15f8: 3dc00140     	ldr	q0, [x10]
    15fc: 3dc00161     	ldr	q1, [x11]
    1600: 4ea18402     	add.4s	v2, v0, v1
    1604: 3d800182     	str	q2, [x12]
    1608: 9100414a     	add	x10, x10, #0x10
    160c: 9100416b     	add	x11, x11, #0x10
    1610: 9100418c     	add	x12, x12, #0x10
		...
    161c: 3dc00140     	ldr	q0, [x10]
    1620: 3dc00161     	ldr	q1, [x11]
    1624: 4ea18402     	add.4s	v2, v0, v1
    1628: 3d800182     	str	q2, [x12]
    162c: 9100414a     	add	x10, x10, #0x10
    1630: 9100416b     	add	x11, x11, #0x10
    1634: 9100418c     	add	x12, x12, #0x10
		...
    1640: 3dc00140     	ldr	q0, [x10]
    1644: 3dc00161     	ldr	q1, [x11]
    1648: 4ea18402     	add.4s	v2, v0, v1
    164c: 3d800182     	str	q2, [x12]
    1650: 9100414a     	add	x10, x10, #0x10
    1654: 9100416b     	add	x11, x11, #0x10
    1658: 9100418c     	add	x12, x12, #0x10
		...
    1664: 3dc00140     	ldr	q0, [x10]
    1668: 3dc00161     	ldr	q1, [x11]
    166c: 4ea18402     	add.4s	v2, v0, v1
    1670: 3d800182     	str	q2, [x12]
    1674: 9100414a     	add	x10, x10, #0x10
    1678: 9100416b     	add	x11, x11, #0x10
    167c: 9100418c     	add	x12, x12, #0x10
		...
    1688: 3dc00140     	ldr	q0, [x10]
    168c: 3dc00161     	ldr	q1, [x11]
    1690: 4ea18402     	add.4s	v2, v0, v1
    1694: 3d800182     	str	q2, [x12]
    1698: 9100414a     	add	x10, x10, #0x10
    169c: 9100416b     	add	x11, x11, #0x10
    16a0: 9100418c     	add	x12, x12, #0x10
		...
    16ac: 3dc00140     	ldr	q0, [x10]
    16b0: 3dc00161     	ldr	q1, [x11]
    16b4: 4ea18402     	add.4s	v2, v0, v1
    16b8: 3d800182     	str	q2, [x12]
    16bc: 9100414a     	add	x10, x10, #0x10
    16c0: 9100416b     	add	x11, x11, #0x10
    16c4: 9100418c     	add	x12, x12, #0x10
		...
    16d0: 3dc00140     	ldr	q0, [x10]
    16d4: 3dc00161     	ldr	q1, [x11]
    16d8: 4ea18402     	add.4s	v2, v0, v1
    16dc: 3d800182     	str	q2, [x12]
    16e0: 9100414a     	add	x10, x10, #0x10
    16e4: 9100416b     	add	x11, x11, #0x10
    16e8: 9100418c     	add	x12, x12, #0x10
		...
    16f4: 3dc00140     	ldr	q0, [x10]
    16f8: 3dc00161     	ldr	q1, [x11]
    16fc: 4ea18402     	add.4s	v2, v0, v1
    1700: 3d800182     	str	q2, [x12]
    1704: 9100414a     	add	x10, x10, #0x10
    1708: 9100416b     	add	x11, x11, #0x10
    170c: 9100418c     	add	x12, x12, #0x10
		...
    1718: 3dc00140     	ldr	q0, [x10]
    171c: 3dc00161     	ldr	q1, [x11]
    1720: 4ea18402     	add.4s	v2, v0, v1
    1724: 3d800182     	str	q2, [x12]
    1728: 9100414a     	add	x10, x10, #0x10
    172c: 9100416b     	add	x11, x11, #0x10
    1730: 9100418c     	add	x12, x12, #0x10
		...
    173c: 3dc00140     	ldr	q0, [x10]
    1740: 3dc00161     	ldr	q1, [x11]
    1744: 4ea18402     	add.4s	v2, v0, v1
    1748: 3d800182     	str	q2, [x12]
    174c: 9100414a     	add	x10, x10, #0x10
    1750: 9100416b     	add	x11, x11, #0x10
    1754: 9100418c     	add	x12, x12, #0x10
		...
    1760: 3dc00140     	ldr	q0, [x10]
    1764: 3dc00161     	ldr	q1, [x11]
    1768: 4ea18402     	add.4s	v2, v0, v1
    176c: 3d800182     	str	q2, [x12]
    1770: 9100414a     	add	x10, x10, #0x10
    1774: 9100416b     	add	x11, x11, #0x10
    1778: 9100418c     	add	x12, x12, #0x10
		...
    1784: 3dc00140     	ldr	q0, [x10]
    1788: 3dc00161     	ldr	q1, [x11]
    178c: 4ea18402     	add.4s	v2, v0, v1
    1790: 3d800182     	str	q2, [x12]
    1794: 9100414a     	add	x10, x10, #0x10
    1798: 9100416b     	add	x11, x11, #0x10
    179c: 9100418c     	add	x12, x12, #0x10
		...
    17a8: 3dc00140     	ldr	q0, [x10]
    17ac: 3dc00161     	ldr	q1, [x11]
    17b0: 4ea18402     	add.4s	v2, v0, v1
    17b4: 3d800182     	str	q2, [x12]
    17b8: 9100414a     	add	x10, x10, #0x10
    17bc: 9100416b     	add	x11, x11, #0x10
    17c0: 9100418c     	add	x12, x12, #0x10
		...
    17cc: 3dc00140     	ldr	q0, [x10]
    17d0: 3dc00161     	ldr	q1, [x11]
    17d4: 4ea18402     	add.4s	v2, v0, v1
    17d8: 3d800182     	str	q2, [x12]
    17dc: 9100414a     	add	x10, x10, #0x10
    17e0: 9100416b     	add	x11, x11, #0x10
    17e4: 9100418c     	add	x12, x12, #0x10
		...
    17f0: 3dc00140     	ldr	q0, [x10]
    17f4: 3dc00161     	ldr	q1, [x11]
    17f8: 4ea18402     	add.4s	v2, v0, v1
    17fc: 3d800182     	str	q2, [x12]
    1800: 9100414a     	add	x10, x10, #0x10
    1804: 9100416b     	add	x11, x11, #0x10
    1808: 9100418c     	add	x12, x12, #0x10
		...
    1814: 3dc00140     	ldr	q0, [x10]
    1818: 3dc00161     	ldr	q1, [x11]
    181c: 4ea18402     	add.4s	v2, v0, v1
    1820: 3d800182     	str	q2, [x12]
    1824: 9100414a     	add	x10, x10, #0x10
    1828: 9100416b     	add	x11, x11, #0x10
    182c: 9100418c     	add	x12, x12, #0x10
		...
    1838: 3dc00140     	ldr	q0, [x10]
    183c: 3dc00161     	ldr	q1, [x11]
    1840: 4ea18402     	add.4s	v2, v0, v1
    1844: 3d800182     	str	q2, [x12]
    1848: 9100414a     	add	x10, x10, #0x10
    184c: 9100416b     	add	x11, x11, #0x10
    1850: 9100418c     	add	x12, x12, #0x10
		...
    185c: 3dc00140     	ldr	q0, [x10]
    1860: 3dc00161     	ldr	q1, [x11]
    1864: 4ea18402     	add.4s	v2, v0, v1
    1868: 3d800182     	str	q2, [x12]
    186c: 9100414a     	add	x10, x10, #0x10
    1870: 9100416b     	add	x11, x11, #0x10
    1874: 9100418c     	add	x12, x12, #0x10
		...
    1880: 3dc00140     	ldr	q0, [x10]
    1884: 3dc00161     	ldr	q1, [x11]
    1888: 4ea18402     	add.4s	v2, v0, v1
    188c: 3d800182     	str	q2, [x12]
    1890: 9100414a     	add	x10, x10, #0x10
    1894: 9100416b     	add	x11, x11, #0x10
    1898: 9100418c     	add	x12, x12, #0x10
		...
    18a4: 3dc00140     	ldr	q0, [x10]
    18a8: 3dc00161     	ldr	q1, [x11]
    18ac: 4ea18402     	add.4s	v2, v0, v1
    18b0: 3d800182     	str	q2, [x12]
    18b4: 9100414a     	add	x10, x10, #0x10
    18b8: 9100416b     	add	x11, x11, #0x10
    18bc: 9100418c     	add	x12, x12, #0x10
		...
    18c8: 3dc00140     	ldr	q0, [x10]
    18cc: 3dc00161     	ldr	q1, [x11]
    18d0: 4ea18402     	add.4s	v2, v0, v1
    18d4: 3d800182     	str	q2, [x12]
    18d8: 9100414a     	add	x10, x10, #0x10
    18dc: 9100416b     	add	x11, x11, #0x10
    18e0: 9100418c     	add	x12, x12, #0x10
		...
    18ec: 3dc00140     	ldr	q0, [x10]
    18f0: 3dc00161     	ldr	q1, [x11]
    18f4: 4ea18402     	add.4s	v2, v0, v1
    18f8: 3d800182     	str	q2, [x12]
    18fc: 9100414a     	add	x10, x10, #0x10
    1900: 9100416b     	add	x11, x11, #0x10
    1904: 9100418c     	add	x12, x12, #0x10
		...
    1910: 3dc00140     	ldr	q0, [x10]
    1914: 3dc00161     	ldr	q1, [x11]
    1918: 4ea18402     	add.4s	v2, v0, v1
    191c: 3d800182     	str	q2, [x12]
    1920: 9100414a     	add	x10, x10, #0x10
    1924: 9100416b     	add	x11, x11, #0x10
    1928: 9100418c     	add	x12, x12, #0x10
		...
    1934: 3dc00140     	ldr	q0, [x10]
    1938: 3dc00161     	ldr	q1, [x11]
    193c: 4ea18402     	add.4s	v2, v0, v1
    1940: 3d800182     	str	q2, [x12]
    1944: 9100414a     	add	x10, x10, #0x10
    1948: 9100416b     	add	x11, x11, #0x10
    194c: 9100418c     	add	x12, x12, #0x10
		...
    1958: 3dc00140     	ldr	q0, [x10]
    195c: 3dc00161     	ldr	q1, [x11]
    1960: 4ea18402     	add.4s	v2, v0, v1
    1964: 3d800182     	str	q2, [x12]
    1968: 9100414a     	add	x10, x10, #0x10
    196c: 9100416b     	add	x11, x11, #0x10
    1970: 9100418c     	add	x12, x12, #0x10
		...
    197c: 3dc00140     	ldr	q0, [x10]
    1980: 3dc00161     	ldr	q1, [x11]
    1984: 4ea18402     	add.4s	v2, v0, v1
    1988: 3d800182     	str	q2, [x12]
    198c: 9100414a     	add	x10, x10, #0x10
    1990: 9100416b     	add	x11, x11, #0x10
    1994: 9100418c     	add	x12, x12, #0x10
		...
    19a0: 3dc00140     	ldr	q0, [x10]
    19a4: 3dc00161     	ldr	q1, [x11]
    19a8: 4ea18402     	add.4s	v2, v0, v1
    19ac: 3d800182     	str	q2, [x12]
    19b0: 9100414a     	add	x10, x10, #0x10
    19b4: 9100416b     	add	x11, x11, #0x10
    19b8: 9100418c     	add	x12, x12, #0x10
		...
    19c4: 3dc00140     	ldr	q0, [x10]
    19c8: 3dc00161     	ldr	q1, [x11]
    19cc: 4ea18402     	add.4s	v2, v0, v1
    19d0: 3d800182     	str	q2, [x12]
    19d4: 9100414a     	add	x10, x10, #0x10
    19d8: 9100416b     	add	x11, x11, #0x10
    19dc: 9100418c     	add	x12, x12, #0x10
		...
    19e8: 3dc00140     	ldr	q0, [x10]
    19ec: 3dc00161     	ldr	q1, [x11]
    19f0: 4ea18402     	add.4s	v2, v0, v1
    19f4: 3d800182     	str	q2, [x12]
    19f8: 9100414a     	add	x10, x10, #0x10
    19fc: 9100416b     	add	x11, x11, #0x10
    1a00: 9100418c     	add	x12, x12, #0x10
		...
    1a0c: 3dc00140     	ldr	q0, [x10]
    1a10: 3dc00161     	ldr	q1, [x11]
    1a14: 4ea18402     	add.4s	v2, v0, v1
    1a18: 3d800182     	str	q2, [x12]
    1a1c: 9100414a     	add	x10, x10, #0x10
    1a20: 9100416b     	add	x11, x11, #0x10
    1a24: 9100418c     	add	x12, x12, #0x10
		...
    1a30: 3dc00140     	ldr	q0, [x10]
    1a34: 3dc00161     	ldr	q1, [x11]
    1a38: 4ea18402     	add.4s	v2, v0, v1
    1a3c: 3d800182     	str	q2, [x12]
    1a40: 9100414a     	add	x10, x10, #0x10
    1a44: 9100416b     	add	x11, x11, #0x10
    1a48: 9100418c     	add	x12, x12, #0x10
		...
    1a54: 3dc00140     	ldr	q0, [x10]
    1a58: 3dc00161     	ldr	q1, [x11]
    1a5c: 4ea18402     	add.4s	v2, v0, v1
    1a60: 3d800182     	str	q2, [x12]
    1a64: 9100414a     	add	x10, x10, #0x10
    1a68: 9100416b     	add	x11, x11, #0x10
    1a6c: 9100418c     	add	x12, x12, #0x10
		...
    1a78: aa0903f9     	mov	x25, x9
    1a7c: 90000009     	adrp	x9, 0x1000 <ltmp0+0x1000>
    1a80: 91000129     	add	x9, x9, #0x0
    1a84: 91002129     	add	x9, x9, #0x8
    1a88: aa0903e0     	mov	x0, x9
    1a8c: 94000000     	bl	0x1a8c <ltmp0+0x1a8c>
    1a90: 90000009     	adrp	x9, 0x1000 <ltmp0+0x1000>
    1a94: 91000129     	add	x9, x9, #0x0
    1a98: 91002129     	add	x9, x9, #0x8
    1a9c: aa0903e0     	mov	x0, x9
    1aa0: 94000000     	bl	0x1aa0 <ltmp0+0x1aa0>
    1aa4: d2800009     	mov	x9, #0x0                ; =0
    1aa8: aa0903f6     	mov	x22, x9
    1aac: 1400003b     	b	0x1b98 <ltmp0+0x1b98>
    1ab0: 90000009     	adrp	x9, 0x1000 <ltmp0+0x1000>
    1ab4: 91000129     	add	x9, x9, #0x0
    1ab8: 91002129     	add	x9, x9, #0x8
    1abc: aa0903e0     	mov	x0, x9
    1ac0: 94000000     	bl	0x1ac0 <ltmp0+0x1ac0>
    1ac4: d2800009     	mov	x9, #0x0                ; =0
    1ac8: aa0903f6     	mov	x22, x9
    1acc: 14000038     	b	0x1bac <ltmp0+0x1bac>
    1ad0: 90000009     	adrp	x9, 0x1000 <ltmp0+0x1000>
    1ad4: 91000129     	add	x9, x9, #0x0
    1ad8: 91002129     	add	x9, x9, #0x8
    1adc: aa0903e0     	mov	x0, x9
    1ae0: 94000000     	bl	0x1ae0 <ltmp0+0x1ae0>
    1ae4: d2800009     	mov	x9, #0x0                ; =0
    1ae8: aa0903f6     	mov	x22, x9
    1aec: 14000035     	b	0x1bc0 <ltmp0+0x1bc0>
    1af0: 90000009     	adrp	x9, 0x1000 <ltmp0+0x1000>
    1af4: 91000129     	add	x9, x9, #0x0
    1af8: 91002129     	add	x9, x9, #0x8
    1afc: aa0903e0     	mov	x0, x9
    1b00: 94000000     	bl	0x1b00 <ltmp0+0x1b00>
    1b04: 17fff972     	b	0xcc <ltmp0+0xcc>
    1b08: 90000009     	adrp	x9, 0x1000 <ltmp0+0x1000>
    1b0c: 91000129     	add	x9, x9, #0x0
    1b10: 91002129     	add	x9, x9, #0x8
    1b14: aa0903e0     	mov	x0, x9
    1b18: 94000000     	bl	0x1b18 <ltmp0+0x1b18>
    1b1c: 90000009     	adrp	x9, 0x1000 <ltmp0+0x1000>
    1b20: 91000129     	add	x9, x9, #0x0
    1b24: 91002129     	add	x9, x9, #0x8
    1b28: aa0903e0     	mov	x0, x9
    1b2c: 94000000     	bl	0x1b2c <ltmp0+0x1b2c>
    1b30: 90000009     	adrp	x9, 0x1000 <ltmp0+0x1000>
    1b34: 91000129     	add	x9, x9, #0x0
    1b38: 91002129     	add	x9, x9, #0x8
    1b3c: aa0903e0     	mov	x0, x9
    1b40: 94000000     	bl	0x1b40 <ltmp0+0x1b40>
    1b44: 90000009     	adrp	x9, 0x1000 <ltmp0+0x1000>
    1b48: 91000129     	add	x9, x9, #0x0
    1b4c: 91002129     	add	x9, x9, #0x8
    1b50: aa0903e0     	mov	x0, x9
    1b54: 94000000     	bl	0x1b54 <ltmp0+0x1b54>
    1b58: d2800009     	mov	x9, #0x0                ; =0
    1b5c: aa0903f6     	mov	x22, x9
    1b60: 1400001d     	b	0x1bd4 <ltmp0+0x1bd4>
    1b64: 90000009     	adrp	x9, 0x1000 <ltmp0+0x1000>
    1b68: 91000129     	add	x9, x9, #0x0
    1b6c: 91002129     	add	x9, x9, #0x8
    1b70: aa0903e0     	mov	x0, x9
    1b74: 94000000     	bl	0x1b74 <ltmp0+0x1b74>
    1b78: d2800009     	mov	x9, #0x0                ; =0
    1b7c: aa0903f6     	mov	x22, x9
    1b80: 1400001a     	b	0x1be8 <ltmp0+0x1be8>
    1b84: aa1603e9     	mov	x9, x22
    1b88: d2800c6a     	mov	x10, #0x63              ; =99
    1b8c: eb0a013f     	cmp	x9, x10
    1b90: 54fffbcc     	b.gt	0x1b08 <ltmp0+0x1b08>
    1b94: 17fff9b3     	b	0x260 <ltmp0+0x260>
    1b98: aa1603e9     	mov	x9, x22
    1b9c: d280004b     	mov	x11, #0x2               ; =2
    1ba0: eb0b013f     	cmp	x9, x11
    1ba4: 54fff86c     	b.gt	0x1ab0 <ltmp0+0x1ab0>
    1ba8: 17fff96a     	b	0x150 <ltmp0+0x150>
    1bac: aa1603e9     	mov	x9, x22
    1bb0: d280004c     	mov	x12, #0x2               ; =2
    1bb4: eb0c013f     	cmp	x9, x12
    1bb8: 54fff8cc     	b.gt	0x1ad0 <ltmp0+0x1ad0>
    1bbc: 17fff987     	b	0x1d8 <ltmp0+0x1d8>
    1bc0: aa1603e9     	mov	x9, x22
    1bc4: d280004d     	mov	x13, #0x2               ; =2
    1bc8: eb0d013f     	cmp	x9, x13
    1bcc: 54fff92c     	b.gt	0x1af0 <ltmp0+0x1af0>
    1bd0: 17fff9d0     	b	0x310 <ltmp0+0x310>
    1bd4: aa1603e9     	mov	x9, x22
    1bd8: d280008e     	mov	x14, #0x4               ; =4
    1bdc: eb0e013f     	cmp	x9, x14
    1be0: 54fffc2c     	b.gt	0x1b64 <ltmp0+0x1b64>
    1be4: 17fff9eb     	b	0x390 <ltmp0+0x390>
    1be8: aa1603e9     	mov	x9, x22
    1bec: d280008f     	mov	x15, #0x4               ; =4
    1bf0: eb0f013f     	cmp	x9, x15
    1bf4: 54ff40ec     	b.gt	0x410 <ltmp0+0x410>
    1bf8: 17fff936     	b	0xd0 <ltmp0+0xd0>
    1bfc: aa1603e9     	mov	x9, x22
    1c00: 91000529     	add	x9, x9, #0x1
    1c04: aa0903f6     	mov	x22, x9
    1c08: 17fffff8     	b	0x1be8 <ltmp0+0x1be8>
    1c0c: aa1603e9     	mov	x9, x22
    1c10: 91000529     	add	x9, x9, #0x1
    1c14: aa0903f6     	mov	x22, x9
    1c18: 17ffffe0     	b	0x1b98 <ltmp0+0x1b98>
    1c1c: aa1603e9     	mov	x9, x22
    1c20: 91000529     	add	x9, x9, #0x1
    1c24: aa0903f6     	mov	x22, x9
    1c28: 17ffffe1     	b	0x1bac <ltmp0+0x1bac>
    1c2c: aa1603e9     	mov	x9, x22
    1c30: 91000529     	add	x9, x9, #0x1
    1c34: aa0903f6     	mov	x22, x9
    1c38: 17ffffe2     	b	0x1bc0 <ltmp0+0x1bc0>
    1c3c: aa1603e9     	mov	x9, x22
    1c40: 91000529     	add	x9, x9, #0x1
    1c44: aa0903f6     	mov	x22, x9
    1c48: 17ffffcf     	b	0x1b84 <ltmp0+0x1b84>
    1c4c: aa1603e9     	mov	x9, x22
    1c50: 91000529     	add	x9, x9, #0x1
    1c54: aa0903f6     	mov	x22, x9
    1c58: 17ffffdf     	b	0x1bd4 <ltmp0+0x1bd4>
    1c5c: d2800000     	mov	x0, #0x0                ; =0
    1c60: d2800001     	mov	x1, #0x0                ; =0
    1c64: d2800002     	mov	x2, #0x0                ; =0
    1c68: 94000000     	bl	0x1c68 <ltmp0+0x1c68>
    1c6c: d4200000     	brk	#0
    1c70: a94653b3     	ldp	x19, x20, [x29, #0x60]
    1c74: a9475bb5     	ldp	x21, x22, [x29, #0x70]
    1c78: a94863b7     	ldp	x23, x24, [x29, #0x80]
    1c7c: a9496bb9     	ldp	x25, x26, [x29, #0x90]
    1c80: a94a73bb     	ldp	x27, x28, [x29, #0xa0]
    1c84: 910003bf     	mov	sp, x29
    1c88: a9407bfd     	ldp	x29, x30, [sp]
    1c8c: 910043ff     	add	sp, sp, #0x10
    1c90: d65f03c0     	ret
    1c94: d29ceb90     	mov	x16, #0xe75c            ; =59228
    1c98: f2a053f0     	movk	x16, #0x29f, lsl #16
    1c9c: f2c00030     	movk	x16, #0x1, lsl #32
    1ca0: f2e00010     	movk	x16, #0x0, lsl #48
    1ca4: d63f0200     	blr	x16
